ARM GAS  C:\Users\harri\AppData\Local\Temp\ccZ83DjJ.s 			page 1


   1              		.syntax unified
   2              		.cpu cortex-m0
   3              		.fpu softvfp
   4              		.eabi_attribute 20, 1
   5              		.eabi_attribute 21, 1
   6              		.eabi_attribute 23, 3
   7              		.eabi_attribute 24, 1
   8              		.eabi_attribute 25, 1
   9              		.eabi_attribute 26, 1
  10              		.eabi_attribute 30, 1
  11              		.eabi_attribute 34, 0
  12              		.eabi_attribute 18, 4
  13              		.thumb
  14              		.syntax unified
  15              		.file	"cyfitter_cfg.c"
  16              		.text
  17              	.Ltext0:
  18              		.cfi_sections	.debug_frame
  19              		.section	.text.cfg_write_bytes32,"ax",%progbits
  20              		.align	2
  21              		.code	16
  22              		.thumb_func
  23              		.type	cfg_write_bytes32, %function
  24              	cfg_write_bytes32:
  25              	.LFB5:
  26              		.file 1 "Generated_Source\\PSoC4\\cyfitter_cfg.c"
   1:Generated_Source\PSoC4/cyfitter_cfg.c **** 
   2:Generated_Source\PSoC4/cyfitter_cfg.c **** /*******************************************************************************
   3:Generated_Source\PSoC4/cyfitter_cfg.c **** * File Name: cyfitter_cfg.c
   4:Generated_Source\PSoC4/cyfitter_cfg.c **** * 
   5:Generated_Source\PSoC4/cyfitter_cfg.c **** * PSoC Creator  4.4
   6:Generated_Source\PSoC4/cyfitter_cfg.c **** *
   7:Generated_Source\PSoC4/cyfitter_cfg.c **** * Description:
   8:Generated_Source\PSoC4/cyfitter_cfg.c **** * This file contains device initialization code.
   9:Generated_Source\PSoC4/cyfitter_cfg.c **** * Except for the user defined sections in CyClockStartupError(), this file should not be modified.
  10:Generated_Source\PSoC4/cyfitter_cfg.c **** * This file is automatically generated by PSoC Creator.
  11:Generated_Source\PSoC4/cyfitter_cfg.c **** *
  12:Generated_Source\PSoC4/cyfitter_cfg.c **** ********************************************************************************
  13:Generated_Source\PSoC4/cyfitter_cfg.c **** * Copyright (c) 2007-2020 Cypress Semiconductor.  All rights reserved.
  14:Generated_Source\PSoC4/cyfitter_cfg.c **** * You may use this file only in accordance with the license, terms, conditions, 
  15:Generated_Source\PSoC4/cyfitter_cfg.c **** * disclaimers, and limitations in the end user license agreement accompanying 
  16:Generated_Source\PSoC4/cyfitter_cfg.c **** * the software package with which this file was provided.
  17:Generated_Source\PSoC4/cyfitter_cfg.c **** ********************************************************************************/
  18:Generated_Source\PSoC4/cyfitter_cfg.c **** 
  19:Generated_Source\PSoC4/cyfitter_cfg.c **** #include <string.h>
  20:Generated_Source\PSoC4/cyfitter_cfg.c **** #include "cytypes.h"
  21:Generated_Source\PSoC4/cyfitter_cfg.c **** #include "cydevice_trm.h"
  22:Generated_Source\PSoC4/cyfitter_cfg.c **** #include "cyfitter.h"
  23:Generated_Source\PSoC4/cyfitter_cfg.c **** #include "CyLib.h"
  24:Generated_Source\PSoC4/cyfitter_cfg.c **** #include "CyLFClk.h"
  25:Generated_Source\PSoC4/cyfitter_cfg.c **** #include "cyfitter_cfg.h"
  26:Generated_Source\PSoC4/cyfitter_cfg.c **** #include "cyapicallbacks.h"
  27:Generated_Source\PSoC4/cyfitter_cfg.c **** 
  28:Generated_Source\PSoC4/cyfitter_cfg.c **** 
  29:Generated_Source\PSoC4/cyfitter_cfg.c **** #if defined(__GNUC__) || defined(__ARMCC_VERSION)
  30:Generated_Source\PSoC4/cyfitter_cfg.c ****     #define CYPACKED 
  31:Generated_Source\PSoC4/cyfitter_cfg.c ****     #define CYPACKED_ATTR __attribute__ ((packed))
ARM GAS  C:\Users\harri\AppData\Local\Temp\ccZ83DjJ.s 			page 2


  32:Generated_Source\PSoC4/cyfitter_cfg.c ****     #define CYALIGNED __attribute__ ((aligned))
  33:Generated_Source\PSoC4/cyfitter_cfg.c ****     #define CY_CFG_UNUSED __attribute__ ((unused))
  34:Generated_Source\PSoC4/cyfitter_cfg.c ****     #ifndef CY_CFG_SECTION
  35:Generated_Source\PSoC4/cyfitter_cfg.c ****         #define CY_CFG_SECTION __attribute__ ((section(".psocinit")))
  36:Generated_Source\PSoC4/cyfitter_cfg.c ****     #endif
  37:Generated_Source\PSoC4/cyfitter_cfg.c ****     
  38:Generated_Source\PSoC4/cyfitter_cfg.c ****     #if defined(__ARMCC_VERSION)
  39:Generated_Source\PSoC4/cyfitter_cfg.c ****         #define CY_CFG_MEMORY_BARRIER() __memory_changed()
  40:Generated_Source\PSoC4/cyfitter_cfg.c ****     #else
  41:Generated_Source\PSoC4/cyfitter_cfg.c ****         #define CY_CFG_MEMORY_BARRIER() __sync_synchronize()
  42:Generated_Source\PSoC4/cyfitter_cfg.c ****     #endif
  43:Generated_Source\PSoC4/cyfitter_cfg.c ****     
  44:Generated_Source\PSoC4/cyfitter_cfg.c **** #elif defined(__ICCARM__)
  45:Generated_Source\PSoC4/cyfitter_cfg.c ****     #include <intrinsics.h>
  46:Generated_Source\PSoC4/cyfitter_cfg.c **** 
  47:Generated_Source\PSoC4/cyfitter_cfg.c ****     #define CYPACKED __packed
  48:Generated_Source\PSoC4/cyfitter_cfg.c ****     #define CYPACKED_ATTR 
  49:Generated_Source\PSoC4/cyfitter_cfg.c ****     #define CYALIGNED _Pragma("data_alignment=4")
  50:Generated_Source\PSoC4/cyfitter_cfg.c ****     #define CY_CFG_UNUSED _Pragma("diag_suppress=Pe177")
  51:Generated_Source\PSoC4/cyfitter_cfg.c ****     #define CY_CFG_SECTION _Pragma("location=\".psocinit\"")
  52:Generated_Source\PSoC4/cyfitter_cfg.c ****     
  53:Generated_Source\PSoC4/cyfitter_cfg.c ****     #define CY_CFG_MEMORY_BARRIER() __DMB()
  54:Generated_Source\PSoC4/cyfitter_cfg.c ****     
  55:Generated_Source\PSoC4/cyfitter_cfg.c **** #else
  56:Generated_Source\PSoC4/cyfitter_cfg.c ****     #error Unsupported toolchain
  57:Generated_Source\PSoC4/cyfitter_cfg.c **** #endif
  58:Generated_Source\PSoC4/cyfitter_cfg.c **** 
  59:Generated_Source\PSoC4/cyfitter_cfg.c **** #ifndef CYCODE
  60:Generated_Source\PSoC4/cyfitter_cfg.c ****     #define CYCODE
  61:Generated_Source\PSoC4/cyfitter_cfg.c **** #endif
  62:Generated_Source\PSoC4/cyfitter_cfg.c **** #ifndef CYDATA
  63:Generated_Source\PSoC4/cyfitter_cfg.c ****     #define CYDATA
  64:Generated_Source\PSoC4/cyfitter_cfg.c **** #endif
  65:Generated_Source\PSoC4/cyfitter_cfg.c **** #ifndef CYFAR
  66:Generated_Source\PSoC4/cyfitter_cfg.c ****     #define CYFAR
  67:Generated_Source\PSoC4/cyfitter_cfg.c **** #endif
  68:Generated_Source\PSoC4/cyfitter_cfg.c **** #ifndef CYXDATA
  69:Generated_Source\PSoC4/cyfitter_cfg.c ****     #define CYXDATA
  70:Generated_Source\PSoC4/cyfitter_cfg.c **** #endif
  71:Generated_Source\PSoC4/cyfitter_cfg.c **** 
  72:Generated_Source\PSoC4/cyfitter_cfg.c **** 
  73:Generated_Source\PSoC4/cyfitter_cfg.c **** CY_CFG_UNUSED
  74:Generated_Source\PSoC4/cyfitter_cfg.c **** static void CYMEMZERO(void *s, size_t n);
  75:Generated_Source\PSoC4/cyfitter_cfg.c **** CY_CFG_UNUSED
  76:Generated_Source\PSoC4/cyfitter_cfg.c **** static void CYMEMZERO(void *s, size_t n)
  77:Generated_Source\PSoC4/cyfitter_cfg.c **** {
  78:Generated_Source\PSoC4/cyfitter_cfg.c **** 	(void)memset(s, 0, n);
  79:Generated_Source\PSoC4/cyfitter_cfg.c **** }
  80:Generated_Source\PSoC4/cyfitter_cfg.c **** CY_CFG_UNUSED
  81:Generated_Source\PSoC4/cyfitter_cfg.c **** static void CYCONFIGCPY(void *dest, const void *src, size_t n);
  82:Generated_Source\PSoC4/cyfitter_cfg.c **** CY_CFG_UNUSED
  83:Generated_Source\PSoC4/cyfitter_cfg.c **** static void CYCONFIGCPY(void *dest, const void *src, size_t n)
  84:Generated_Source\PSoC4/cyfitter_cfg.c **** {
  85:Generated_Source\PSoC4/cyfitter_cfg.c **** 	(void)memcpy(dest, src, n);
  86:Generated_Source\PSoC4/cyfitter_cfg.c **** }
  87:Generated_Source\PSoC4/cyfitter_cfg.c **** CY_CFG_UNUSED
  88:Generated_Source\PSoC4/cyfitter_cfg.c **** static void CYCONFIGCPYCODE(void *dest, const void *src, size_t n);
ARM GAS  C:\Users\harri\AppData\Local\Temp\ccZ83DjJ.s 			page 3


  89:Generated_Source\PSoC4/cyfitter_cfg.c **** CY_CFG_UNUSED
  90:Generated_Source\PSoC4/cyfitter_cfg.c **** static void CYCONFIGCPYCODE(void *dest, const void *src, size_t n)
  91:Generated_Source\PSoC4/cyfitter_cfg.c **** {
  92:Generated_Source\PSoC4/cyfitter_cfg.c **** 	(void)memcpy(dest, src, n);
  93:Generated_Source\PSoC4/cyfitter_cfg.c **** }
  94:Generated_Source\PSoC4/cyfitter_cfg.c **** 
  95:Generated_Source\PSoC4/cyfitter_cfg.c **** 
  96:Generated_Source\PSoC4/cyfitter_cfg.c **** 
  97:Generated_Source\PSoC4/cyfitter_cfg.c **** 
  98:Generated_Source\PSoC4/cyfitter_cfg.c **** /* Clock startup error codes                                                   */
  99:Generated_Source\PSoC4/cyfitter_cfg.c **** #define CYCLOCKSTART_NO_ERROR    0u
 100:Generated_Source\PSoC4/cyfitter_cfg.c **** #define CYCLOCKSTART_XTAL_ERROR  1u
 101:Generated_Source\PSoC4/cyfitter_cfg.c **** #define CYCLOCKSTART_32KHZ_ERROR 2u
 102:Generated_Source\PSoC4/cyfitter_cfg.c **** #define CYCLOCKSTART_PLL_ERROR   3u
 103:Generated_Source\PSoC4/cyfitter_cfg.c **** #define CYCLOCKSTART_FLL_ERROR   4u
 104:Generated_Source\PSoC4/cyfitter_cfg.c **** #define CYCLOCKSTART_WCO_ERROR   5u
 105:Generated_Source\PSoC4/cyfitter_cfg.c **** 
 106:Generated_Source\PSoC4/cyfitter_cfg.c **** 
 107:Generated_Source\PSoC4/cyfitter_cfg.c **** #ifdef CY_NEED_CYCLOCKSTARTUPERROR
 108:Generated_Source\PSoC4/cyfitter_cfg.c **** /*******************************************************************************
 109:Generated_Source\PSoC4/cyfitter_cfg.c **** * Function Name: CyClockStartupError
 110:Generated_Source\PSoC4/cyfitter_cfg.c **** ********************************************************************************
 111:Generated_Source\PSoC4/cyfitter_cfg.c **** * Summary:
 112:Generated_Source\PSoC4/cyfitter_cfg.c **** *  If an error is encountered during clock configuration (crystal startup error,
 113:Generated_Source\PSoC4/cyfitter_cfg.c **** *  PLL lock error, etc.), the system will end up here.  Unless reimplemented by
 114:Generated_Source\PSoC4/cyfitter_cfg.c **** *  the customer, this function will stop in an infinite loop.
 115:Generated_Source\PSoC4/cyfitter_cfg.c **** *
 116:Generated_Source\PSoC4/cyfitter_cfg.c **** * Parameters:
 117:Generated_Source\PSoC4/cyfitter_cfg.c **** *   void
 118:Generated_Source\PSoC4/cyfitter_cfg.c **** *
 119:Generated_Source\PSoC4/cyfitter_cfg.c **** * Return:
 120:Generated_Source\PSoC4/cyfitter_cfg.c **** *   void
 121:Generated_Source\PSoC4/cyfitter_cfg.c **** *
 122:Generated_Source\PSoC4/cyfitter_cfg.c **** *******************************************************************************/
 123:Generated_Source\PSoC4/cyfitter_cfg.c **** CY_CFG_UNUSED
 124:Generated_Source\PSoC4/cyfitter_cfg.c **** static void CyClockStartupError(uint8 errorCode);
 125:Generated_Source\PSoC4/cyfitter_cfg.c **** CY_CFG_UNUSED
 126:Generated_Source\PSoC4/cyfitter_cfg.c **** static void CyClockStartupError(uint8 errorCode)
 127:Generated_Source\PSoC4/cyfitter_cfg.c **** {
 128:Generated_Source\PSoC4/cyfitter_cfg.c ****     /* To remove the compiler warning if errorCode not used.                */
 129:Generated_Source\PSoC4/cyfitter_cfg.c ****     errorCode = errorCode;
 130:Generated_Source\PSoC4/cyfitter_cfg.c **** 
 131:Generated_Source\PSoC4/cyfitter_cfg.c ****     /* If we have a clock startup error (bad MHz crystal, PLL lock, etc.),  */
 132:Generated_Source\PSoC4/cyfitter_cfg.c ****     /* we will end up here to allow the customer to implement something to  */
 133:Generated_Source\PSoC4/cyfitter_cfg.c ****     /* deal with the clock condition.                                       */
 134:Generated_Source\PSoC4/cyfitter_cfg.c **** 
 135:Generated_Source\PSoC4/cyfitter_cfg.c **** #ifdef CY_CFG_CLOCK_STARTUP_ERROR_CALLBACK
 136:Generated_Source\PSoC4/cyfitter_cfg.c ****     CY_CFG_Clock_Startup_ErrorCallback();
 137:Generated_Source\PSoC4/cyfitter_cfg.c **** #else
 138:Generated_Source\PSoC4/cyfitter_cfg.c ****     /*  If not using CY_CFG_CLOCK_STARTUP_ERROR_CALLBACK, place your clock startup code here. */
 139:Generated_Source\PSoC4/cyfitter_cfg.c ****     /* `#START CyClockStartupError` */
 140:Generated_Source\PSoC4/cyfitter_cfg.c **** 
 141:Generated_Source\PSoC4/cyfitter_cfg.c **** 
 142:Generated_Source\PSoC4/cyfitter_cfg.c **** 
 143:Generated_Source\PSoC4/cyfitter_cfg.c ****     /* `#END` */
 144:Generated_Source\PSoC4/cyfitter_cfg.c **** 
 145:Generated_Source\PSoC4/cyfitter_cfg.c ****     while(1) {}
ARM GAS  C:\Users\harri\AppData\Local\Temp\ccZ83DjJ.s 			page 4


 146:Generated_Source\PSoC4/cyfitter_cfg.c **** #endif /* CY_CFG_CLOCK_STARTUP_ERROR_CALLBACK */
 147:Generated_Source\PSoC4/cyfitter_cfg.c **** }
 148:Generated_Source\PSoC4/cyfitter_cfg.c **** #endif
 149:Generated_Source\PSoC4/cyfitter_cfg.c **** 
 150:Generated_Source\PSoC4/cyfitter_cfg.c **** #define CY_CFG_BASE_ADDR_COUNT 9u
 151:Generated_Source\PSoC4/cyfitter_cfg.c **** CYPACKED typedef struct
 152:Generated_Source\PSoC4/cyfitter_cfg.c **** {
 153:Generated_Source\PSoC4/cyfitter_cfg.c **** 	uint8 offset;
 154:Generated_Source\PSoC4/cyfitter_cfg.c **** 	uint8 value;
 155:Generated_Source\PSoC4/cyfitter_cfg.c **** } CYPACKED_ATTR cy_cfg_addrvalue_t;
 156:Generated_Source\PSoC4/cyfitter_cfg.c **** 
 157:Generated_Source\PSoC4/cyfitter_cfg.c **** 
 158:Generated_Source\PSoC4/cyfitter_cfg.c **** 
 159:Generated_Source\PSoC4/cyfitter_cfg.c **** /*******************************************************************************
 160:Generated_Source\PSoC4/cyfitter_cfg.c **** * Function Name: cfg_write_bytes32
 161:Generated_Source\PSoC4/cyfitter_cfg.c **** ********************************************************************************
 162:Generated_Source\PSoC4/cyfitter_cfg.c **** * Summary:
 163:Generated_Source\PSoC4/cyfitter_cfg.c **** *  This function is used for setting up the chip configuration areas that
 164:Generated_Source\PSoC4/cyfitter_cfg.c **** *  contain relatively sparse data.
 165:Generated_Source\PSoC4/cyfitter_cfg.c **** *
 166:Generated_Source\PSoC4/cyfitter_cfg.c **** * Parameters:
 167:Generated_Source\PSoC4/cyfitter_cfg.c **** *   void
 168:Generated_Source\PSoC4/cyfitter_cfg.c **** *
 169:Generated_Source\PSoC4/cyfitter_cfg.c **** * Return:
 170:Generated_Source\PSoC4/cyfitter_cfg.c **** *   void
 171:Generated_Source\PSoC4/cyfitter_cfg.c **** *
 172:Generated_Source\PSoC4/cyfitter_cfg.c **** *******************************************************************************/
 173:Generated_Source\PSoC4/cyfitter_cfg.c **** static void cfg_write_bytes32(const uint32 addr_table[], const cy_cfg_addrvalue_t data_table[]);
 174:Generated_Source\PSoC4/cyfitter_cfg.c **** static void cfg_write_bytes32(const uint32 addr_table[], const cy_cfg_addrvalue_t data_table[])
 175:Generated_Source\PSoC4/cyfitter_cfg.c **** {
  27              		.loc 1 175 0
  28              		.cfi_startproc
  29              		@ args = 0, pretend = 0, frame = 0
  30              		@ frame_needed = 0, uses_anonymous_args = 0
  31              	.LVL0:
  32 0000 F0B5     		push	{r4, r5, r6, r7, lr}
  33              		.cfi_def_cfa_offset 20
  34              		.cfi_offset 4, -20
  35              		.cfi_offset 5, -16
  36              		.cfi_offset 6, -12
  37              		.cfi_offset 7, -8
  38              		.cfi_offset 14, -4
  39              	.LVL1:
 176:Generated_Source\PSoC4/cyfitter_cfg.c **** 	/* For 32-bit little-endian architectures */
 177:Generated_Source\PSoC4/cyfitter_cfg.c **** 	uint32 i, j = 0u;
  40              		.loc 1 177 0
  41 0002 0025     		movs	r5, #0
 178:Generated_Source\PSoC4/cyfitter_cfg.c **** 	for (i = 0u; i < CY_CFG_BASE_ADDR_COUNT; i++)
  42              		.loc 1 178 0
  43 0004 0027     		movs	r7, #0
  44 0006 11E0     		b	.L2
  45              	.LVL2:
  46              	.L5:
  47              	.LBB2:
 179:Generated_Source\PSoC4/cyfitter_cfg.c **** 	{
 180:Generated_Source\PSoC4/cyfitter_cfg.c **** 		uint32 baseAddr = addr_table[i];
  48              		.loc 1 180 0
ARM GAS  C:\Users\harri\AppData\Local\Temp\ccZ83DjJ.s 			page 5


  49 0008 BB00     		lsls	r3, r7, #2
  50 000a C658     		ldr	r6, [r0, r3]
  51              	.LVL3:
 181:Generated_Source\PSoC4/cyfitter_cfg.c **** 		uint8 count = (uint8)baseAddr;
  52              		.loc 1 181 0
  53 000c F3B2     		uxtb	r3, r6
  54              	.LVL4:
 182:Generated_Source\PSoC4/cyfitter_cfg.c **** 		baseAddr &= 0xFFFFFF00u;
  55              		.loc 1 182 0
  56 000e FF22     		movs	r2, #255
  57 0010 9643     		bics	r6, r2
  58              	.LVL5:
 183:Generated_Source\PSoC4/cyfitter_cfg.c **** 		while (count != 0u)
  59              		.loc 1 183 0
  60 0012 08E0     		b	.L3
  61              	.L4:
 184:Generated_Source\PSoC4/cyfitter_cfg.c **** 		{
 185:Generated_Source\PSoC4/cyfitter_cfg.c **** 			CY_SET_REG8((void *)(baseAddr + data_table[j].offset), data_table[j].value);
  62              		.loc 1 185 0
  63 0014 6A00     		lsls	r2, r5, #1
  64 0016 8A18     		adds	r2, r1, r2
  65 0018 1478     		ldrb	r4, [r2]
  66 001a A419     		adds	r4, r4, r6
  67 001c 5278     		ldrb	r2, [r2, #1]
  68 001e 2270     		strb	r2, [r4]
 186:Generated_Source\PSoC4/cyfitter_cfg.c **** 			j++;
  69              		.loc 1 186 0
  70 0020 0135     		adds	r5, r5, #1
  71              	.LVL6:
 187:Generated_Source\PSoC4/cyfitter_cfg.c **** 			count--;
  72              		.loc 1 187 0
  73 0022 013B     		subs	r3, r3, #1
  74              	.LVL7:
  75 0024 DBB2     		uxtb	r3, r3
  76              	.LVL8:
  77              	.L3:
 183:Generated_Source\PSoC4/cyfitter_cfg.c **** 		{
  78              		.loc 1 183 0
  79 0026 002B     		cmp	r3, #0
  80 0028 F4D1     		bne	.L4
  81              	.LBE2:
 178:Generated_Source\PSoC4/cyfitter_cfg.c **** 	{
  82              		.loc 1 178 0 discriminator 2
  83 002a 0137     		adds	r7, r7, #1
  84              	.LVL9:
  85              	.L2:
 178:Generated_Source\PSoC4/cyfitter_cfg.c **** 	{
  86              		.loc 1 178 0 is_stmt 0 discriminator 1
  87 002c 082F     		cmp	r7, #8
  88 002e EBD9     		bls	.L5
 188:Generated_Source\PSoC4/cyfitter_cfg.c **** 		}
 189:Generated_Source\PSoC4/cyfitter_cfg.c **** 	}
 190:Generated_Source\PSoC4/cyfitter_cfg.c **** }
  89              		.loc 1 190 0 is_stmt 1
  90              		@ sp needed
  91              	.LVL10:
  92              	.LVL11:
ARM GAS  C:\Users\harri\AppData\Local\Temp\ccZ83DjJ.s 			page 6


  93 0030 F0BD     		pop	{r4, r5, r6, r7, pc}
  94              		.cfi_endproc
  95              	.LFE5:
  96              		.size	cfg_write_bytes32, .-cfg_write_bytes32
  97 0032 C046     		.section	.text.CYMEMZERO,"ax",%progbits
  98              		.align	2
  99              		.code	16
 100              		.thumb_func
 101              		.type	CYMEMZERO, %function
 102              	CYMEMZERO:
 103              	.LFB2:
  77:Generated_Source\PSoC4/cyfitter_cfg.c **** 	(void)memset(s, 0, n);
 104              		.loc 1 77 0
 105              		.cfi_startproc
 106              		@ args = 0, pretend = 0, frame = 0
 107              		@ frame_needed = 0, uses_anonymous_args = 0
 108              	.LVL12:
 109 0000 10B5     		push	{r4, lr}
 110              		.cfi_def_cfa_offset 8
 111              		.cfi_offset 4, -8
 112              		.cfi_offset 14, -4
 113 0002 0A00     		movs	r2, r1
  78:Generated_Source\PSoC4/cyfitter_cfg.c **** }
 114              		.loc 1 78 0
 115 0004 0021     		movs	r1, #0
 116              	.LVL13:
 117 0006 FFF7FEFF 		bl	memset
 118              	.LVL14:
  79:Generated_Source\PSoC4/cyfitter_cfg.c **** CY_CFG_UNUSED
 119              		.loc 1 79 0
 120              		@ sp needed
 121 000a 10BD     		pop	{r4, pc}
 122              		.cfi_endproc
 123              	.LFE2:
 124              		.size	CYMEMZERO, .-CYMEMZERO
 125              		.section	.psocinit,"ax",%progbits
 126              		.align	2
 127              		.code	16
 128              		.thumb_func
 129              		.type	ClockSetup, %function
 130              	ClockSetup:
 131              	.LFB6:
 191:Generated_Source\PSoC4/cyfitter_cfg.c **** 
 192:Generated_Source\PSoC4/cyfitter_cfg.c **** 
 193:Generated_Source\PSoC4/cyfitter_cfg.c **** /*******************************************************************************
 194:Generated_Source\PSoC4/cyfitter_cfg.c **** * Function Name: ClockSetup
 195:Generated_Source\PSoC4/cyfitter_cfg.c **** ********************************************************************************
 196:Generated_Source\PSoC4/cyfitter_cfg.c **** *
 197:Generated_Source\PSoC4/cyfitter_cfg.c **** * Summary:
 198:Generated_Source\PSoC4/cyfitter_cfg.c **** *   Performs the initialization of all of the clocks in the device based on the
 199:Generated_Source\PSoC4/cyfitter_cfg.c **** *   settings in the Clock tab of the DWR.  This includes enabling the requested
 200:Generated_Source\PSoC4/cyfitter_cfg.c **** *   clocks and setting the necessary dividers to produce the desired frequency. 
 201:Generated_Source\PSoC4/cyfitter_cfg.c **** *
 202:Generated_Source\PSoC4/cyfitter_cfg.c **** * Parameters:
 203:Generated_Source\PSoC4/cyfitter_cfg.c **** *   void
 204:Generated_Source\PSoC4/cyfitter_cfg.c **** *
 205:Generated_Source\PSoC4/cyfitter_cfg.c **** * Return:
ARM GAS  C:\Users\harri\AppData\Local\Temp\ccZ83DjJ.s 			page 7


 206:Generated_Source\PSoC4/cyfitter_cfg.c **** *   void
 207:Generated_Source\PSoC4/cyfitter_cfg.c **** *
 208:Generated_Source\PSoC4/cyfitter_cfg.c **** *******************************************************************************/
 209:Generated_Source\PSoC4/cyfitter_cfg.c **** static void ClockSetup(void);
 210:Generated_Source\PSoC4/cyfitter_cfg.c **** CY_CFG_SECTION
 211:Generated_Source\PSoC4/cyfitter_cfg.c **** static void ClockSetup(void)
 212:Generated_Source\PSoC4/cyfitter_cfg.c **** {
 132              		.loc 1 212 0
 133              		.cfi_startproc
 134              		@ args = 0, pretend = 0, frame = 0
 135              		@ frame_needed = 0, uses_anonymous_args = 0
 136 0000 70B5     		push	{r4, r5, r6, lr}
 137              		.cfi_def_cfa_offset 16
 138              		.cfi_offset 4, -16
 139              		.cfi_offset 5, -12
 140              		.cfi_offset 6, -8
 141              		.cfi_offset 14, -4
 213:Generated_Source\PSoC4/cyfitter_cfg.c **** 
 214:Generated_Source\PSoC4/cyfitter_cfg.c **** 	/* Set Flash Cycles based on max possible frequency in case a glitch occurs during ClockSetup(). *
 215:Generated_Source\PSoC4/cyfitter_cfg.c **** 	CY_SET_REG32((void CYXDATA *)(CYREG_CPUSS_FLASH_CTL), (0x0012u));
 142              		.loc 1 215 0
 143 0002 1222     		movs	r2, #18
 144 0004 2E4B     		ldr	r3, .L8
 145 0006 1A60     		str	r2, [r3]
 216:Generated_Source\PSoC4/cyfitter_cfg.c **** 
 217:Generated_Source\PSoC4/cyfitter_cfg.c **** 	/* Start the WCO */
 218:Generated_Source\PSoC4/cyfitter_cfg.c **** 	CySysClkWcoStart();
 146              		.loc 1 218 0
 147 0008 FFF7FEFF 		bl	CySysClkWcoStart
 148              	.LVL15:
 219:Generated_Source\PSoC4/cyfitter_cfg.c **** 	CyDelayCycles(12000000u); /* WCO may take up to 500ms to start */
 149              		.loc 1 219 0
 150 000c 2D48     		ldr	r0, .L8+4
 151 000e FFF7FEFF 		bl	CyDelayCycles
 152              	.LVL16:
 220:Generated_Source\PSoC4/cyfitter_cfg.c **** 	(void)CySysClkWcoSetPowerMode(CY_SYS_CLK_WCO_LPM);    /* Switch to the low power mode */
 153              		.loc 1 220 0
 154 0012 0120     		movs	r0, #1
 155 0014 FFF7FEFF 		bl	CySysClkWcoSetPowerMode
 156              	.LVL17:
 221:Generated_Source\PSoC4/cyfitter_cfg.c **** 
 222:Generated_Source\PSoC4/cyfitter_cfg.c **** 	/* Setup and trim IMO based on desired frequency. */
 223:Generated_Source\PSoC4/cyfitter_cfg.c **** 	CySysClkWriteImoFreq(48u);
 157              		.loc 1 223 0
 158 0018 3020     		movs	r0, #48
 159 001a FFF7FEFF 		bl	CySysClkWriteImoFreq
 160              	.LVL18:
 224:Generated_Source\PSoC4/cyfitter_cfg.c **** 	/* CYDEV_CLK_ILO_CONFIG Starting address: CYDEV_CLK_ILO_CONFIG */
 225:Generated_Source\PSoC4/cyfitter_cfg.c **** 	CY_SET_REG32((void *)(CYREG_CLK_ILO_CONFIG), 0x80000006u);
 161              		.loc 1 225 0
 162 001e 2A4A     		ldr	r2, .L8+8
 163 0020 2A4B     		ldr	r3, .L8+12
 164 0022 1A60     		str	r2, [r3]
 226:Generated_Source\PSoC4/cyfitter_cfg.c **** 
 227:Generated_Source\PSoC4/cyfitter_cfg.c **** 	/* CYDEV_WDT_CONFIG Starting address: CYDEV_WDT_CONFIG */
 228:Generated_Source\PSoC4/cyfitter_cfg.c **** 	CY_SET_REG32((void *)(CYREG_WDT_CONFIG), 0x40000000u);
 165              		.loc 1 228 0
ARM GAS  C:\Users\harri\AppData\Local\Temp\ccZ83DjJ.s 			page 8


 166 0024 2A4C     		ldr	r4, .L8+16
 167 0026 8025     		movs	r5, #128
 168 0028 ED05     		lsls	r5, r5, #23
 169 002a 2560     		str	r5, [r4]
 229:Generated_Source\PSoC4/cyfitter_cfg.c **** 
 230:Generated_Source\PSoC4/cyfitter_cfg.c **** 
 231:Generated_Source\PSoC4/cyfitter_cfg.c **** 	/* Enable fast start mode for XO */
 232:Generated_Source\PSoC4/cyfitter_cfg.c **** 	CY_SET_REG32((void*)CYREG_BLE_BLERD_BB_XO, CY_GET_REG32((void*)CYREG_BLE_BLERD_BB_XO) | (uint32)0x
 170              		.loc 1 232 0
 171 002c 294A     		ldr	r2, .L8+20
 172 002e 1168     		ldr	r1, [r2]
 173 0030 0223     		movs	r3, #2
 174 0032 0B43     		orrs	r3, r1
 175 0034 1360     		str	r3, [r2]
 233:Generated_Source\PSoC4/cyfitter_cfg.c **** 	CY_SET_REG32((void *)(CYREG_BLE_BLERD_BB_XO_CAPTRIM), 0x00003E2Du);
 176              		.loc 1 233 0
 177 0036 284A     		ldr	r2, .L8+24
 178 0038 284B     		ldr	r3, .L8+28
 179 003a 1A60     		str	r2, [r3]
 234:Generated_Source\PSoC4/cyfitter_cfg.c **** 	/*Set XTAL(ECO) divider*/
 235:Generated_Source\PSoC4/cyfitter_cfg.c **** 	CY_SET_REG32((void *)(CYREG_BLE_BLESS_XTAL_CLK_DIV_CONFIG), 0x00000000u);
 180              		.loc 1 235 0
 181 003c 0022     		movs	r2, #0
 182 003e 284B     		ldr	r3, .L8+32
 183 0040 1A60     		str	r2, [r3]
 236:Generated_Source\PSoC4/cyfitter_cfg.c **** 	/* Disable Crystal Stable Interrupt before enabling ECO */
 237:Generated_Source\PSoC4/cyfitter_cfg.c **** 	CY_SET_REG32((void*)CYREG_BLE_BLESS_LL_DSM_CTRL, CY_GET_REG32((void*)CYREG_BLE_BLESS_LL_DSM_CTRL) 
 184              		.loc 1 237 0
 185 0042 284A     		ldr	r2, .L8+36
 186 0044 1368     		ldr	r3, [r2]
 187 0046 0821     		movs	r1, #8
 188 0048 8B43     		bics	r3, r1
 189 004a 1360     		str	r3, [r2]
 238:Generated_Source\PSoC4/cyfitter_cfg.c **** 	/* Start the ECO and do not check status since it is not needed for HFCLK */
 239:Generated_Source\PSoC4/cyfitter_cfg.c **** 	(void)CySysClkEcoStart(2000u);
 190              		.loc 1 239 0
 191 004c FA20     		movs	r0, #250
 192 004e C000     		lsls	r0, r0, #3
 193 0050 FFF7FEFF 		bl	CySysClkEcoStart
 194              	.LVL19:
 240:Generated_Source\PSoC4/cyfitter_cfg.c **** 	CyDelayUs(1500u); /* Wait to stabilize */
 195              		.loc 1 240 0
 196 0054 2448     		ldr	r0, .L8+40
 197 0056 FFF7FEFF 		bl	CyDelayUs
 198              	.LVL20:
 241:Generated_Source\PSoC4/cyfitter_cfg.c **** 
 242:Generated_Source\PSoC4/cyfitter_cfg.c **** 	/* Setup phase aligned clocks */
 243:Generated_Source\PSoC4/cyfitter_cfg.c **** 	CY_SET_REG32((void *)CYREG_PERI_DIV_16_CTL2, 0x00002F00u);
 199              		.loc 1 243 0
 200 005a BC22     		movs	r2, #188
 201 005c 9201     		lsls	r2, r2, #6
 202 005e 234B     		ldr	r3, .L8+44
 203 0060 1A60     		str	r2, [r3]
 244:Generated_Source\PSoC4/cyfitter_cfg.c **** 	CY_SET_REG32((void *)CYREG_PERI_DIV_CMD, 0x8000FF42u);
 204              		.loc 1 244 0
 205 0062 234B     		ldr	r3, .L8+48
 206 0064 2349     		ldr	r1, .L8+52
ARM GAS  C:\Users\harri\AppData\Local\Temp\ccZ83DjJ.s 			page 9


 207 0066 1960     		str	r1, [r3]
 245:Generated_Source\PSoC4/cyfitter_cfg.c **** 	CY_SET_REG32((void *)CYREG_PERI_DIV_16_CTL3, 0x0014D400u);
 208              		.loc 1 245 0
 209 0068 2348     		ldr	r0, .L8+56
 210 006a 2449     		ldr	r1, .L8+60
 211 006c 0860     		str	r0, [r1]
 246:Generated_Source\PSoC4/cyfitter_cfg.c **** 	CY_SET_REG32((void *)CYREG_PERI_DIV_CMD, 0x8000FF43u);
 212              		.loc 1 246 0
 213 006e 2449     		ldr	r1, .L8+64
 214 0070 1960     		str	r1, [r3]
 247:Generated_Source\PSoC4/cyfitter_cfg.c **** 	CY_SET_REG32((void *)CYREG_PERI_DIV_16_CTL1, 0x00002F00u);
 215              		.loc 1 247 0
 216 0072 2449     		ldr	r1, .L8+68
 217 0074 0A60     		str	r2, [r1]
 248:Generated_Source\PSoC4/cyfitter_cfg.c **** 	CY_SET_REG32((void *)CYREG_PERI_DIV_CMD, 0x8000FF41u);
 218              		.loc 1 248 0
 219 0076 244A     		ldr	r2, .L8+72
 220 0078 1A60     		str	r2, [r3]
 249:Generated_Source\PSoC4/cyfitter_cfg.c **** 	CY_SET_REG32((void *)CYREG_PERI_DIV_16_CTL0, 0x00001400u);
 221              		.loc 1 249 0
 222 007a A021     		movs	r1, #160
 223 007c 4901     		lsls	r1, r1, #5
 224 007e 234A     		ldr	r2, .L8+76
 225 0080 1160     		str	r1, [r2]
 250:Generated_Source\PSoC4/cyfitter_cfg.c **** 	CY_SET_REG32((void *)CYREG_PERI_DIV_CMD, 0x8000FF40u);
 226              		.loc 1 250 0
 227 0082 234A     		ldr	r2, .L8+80
 228 0084 1A60     		str	r2, [r3]
 251:Generated_Source\PSoC4/cyfitter_cfg.c **** 
 252:Generated_Source\PSoC4/cyfitter_cfg.c **** 	/* CYDEV_CLK_IMO_CONFIG Starting address: CYDEV_CLK_IMO_CONFIG */
 253:Generated_Source\PSoC4/cyfitter_cfg.c **** 	CY_SET_REG32((void *)(CYREG_CLK_IMO_CONFIG), 0x82000000u);
 229              		.loc 1 253 0
 230 0086 8222     		movs	r2, #130
 231 0088 1206     		lsls	r2, r2, #24
 232 008a 224B     		ldr	r3, .L8+84
 233 008c 1A60     		str	r2, [r3]
 254:Generated_Source\PSoC4/cyfitter_cfg.c **** 
 255:Generated_Source\PSoC4/cyfitter_cfg.c **** 	/* CYDEV_CLK_SELECT Starting address: CYDEV_CLK_SELECT */
 256:Generated_Source\PSoC4/cyfitter_cfg.c **** 	CY_SET_REG32((void *)(CYREG_CLK_SELECT), 0x00040000u);
 234              		.loc 1 256 0
 235 008e 8022     		movs	r2, #128
 236 0090 D202     		lsls	r2, r2, #11
 237 0092 214B     		ldr	r3, .L8+88
 238 0094 1A60     		str	r2, [r3]
 257:Generated_Source\PSoC4/cyfitter_cfg.c **** 
 258:Generated_Source\PSoC4/cyfitter_cfg.c **** 	/* CYDEV_PERI_PCLK_CTL14 Starting address: CYDEV_PERI_PCLK_CTL14 */
 259:Generated_Source\PSoC4/cyfitter_cfg.c **** 	CY_SET_REG32((void *)(CYREG_PERI_PCLK_CTL14), 0x00000042u);
 239              		.loc 1 259 0
 240 0096 4222     		movs	r2, #66
 241 0098 204B     		ldr	r3, .L8+92
 242 009a 1A60     		str	r2, [r3]
 260:Generated_Source\PSoC4/cyfitter_cfg.c **** 
 261:Generated_Source\PSoC4/cyfitter_cfg.c **** 	/* CYDEV_PERI_PCLK_CTL13 Starting address: CYDEV_PERI_PCLK_CTL13 */
 262:Generated_Source\PSoC4/cyfitter_cfg.c **** 	CY_SET_REG32((void *)(CYREG_PERI_PCLK_CTL13), 0x00000043u);
 243              		.loc 1 262 0
 244 009c 0132     		adds	r2, r2, #1
 245 009e 204B     		ldr	r3, .L8+96
ARM GAS  C:\Users\harri\AppData\Local\Temp\ccZ83DjJ.s 			page 10


 246 00a0 1A60     		str	r2, [r3]
 263:Generated_Source\PSoC4/cyfitter_cfg.c **** 
 264:Generated_Source\PSoC4/cyfitter_cfg.c **** 	/* CYDEV_PERI_PCLK_CTL12 Starting address: CYDEV_PERI_PCLK_CTL12 */
 265:Generated_Source\PSoC4/cyfitter_cfg.c **** 	CY_SET_REG32((void *)(CYREG_PERI_PCLK_CTL12), 0x00000041u);
 247              		.loc 1 265 0
 248 00a2 023A     		subs	r2, r2, #2
 249 00a4 1F4B     		ldr	r3, .L8+100
 250 00a6 1A60     		str	r2, [r3]
 266:Generated_Source\PSoC4/cyfitter_cfg.c **** 
 267:Generated_Source\PSoC4/cyfitter_cfg.c **** 	/* CYDEV_PERI_PCLK_CTL6 Starting address: CYDEV_PERI_PCLK_CTL6 */
 268:Generated_Source\PSoC4/cyfitter_cfg.c **** 	CY_SET_REG32((void *)(CYREG_PERI_PCLK_CTL6), 0x00000040u);
 251              		.loc 1 268 0
 252 00a8 013A     		subs	r2, r2, #1
 253 00aa 1F4B     		ldr	r3, .L8+104
 254 00ac 1A60     		str	r2, [r3]
 269:Generated_Source\PSoC4/cyfitter_cfg.c **** 
 270:Generated_Source\PSoC4/cyfitter_cfg.c **** 	(void)CyIntSetVector(8u, &CySysWdtIsr);
 255              		.loc 1 270 0
 256 00ae 1F49     		ldr	r1, .L8+108
 257 00b0 0820     		movs	r0, #8
 258 00b2 FFF7FEFF 		bl	CyIntSetVector
 259              	.LVL21:
 271:Generated_Source\PSoC4/cyfitter_cfg.c **** 	CyIntEnable(8u);
 260              		.loc 1 271 0
 261 00b6 0820     		movs	r0, #8
 262 00b8 FFF7FEFF 		bl	CyIntEnable
 263              	.LVL22:
 272:Generated_Source\PSoC4/cyfitter_cfg.c **** 	CY_SET_REG32((void *)(CYREG_WDT_CONFIG), 0x40000000u);
 264              		.loc 1 272 0
 265 00bc 2560     		str	r5, [r4]
 273:Generated_Source\PSoC4/cyfitter_cfg.c **** }
 266              		.loc 1 273 0
 267              		@ sp needed
 268 00be 70BD     		pop	{r4, r5, r6, pc}
 269              	.L9:
 270              		.align	2
 271              	.L8:
 272 00c0 30001040 		.word	1074790448
 273 00c4 001BB700 		.word	12000000
 274 00c8 06000080 		.word	-2147483642
 275 00cc 04010B40 		.word	1074462980
 276 00d0 0C020B40 		.word	1074463244
 277 00d4 78002E40 		.word	1076756600
 278 00d8 2D3E0000 		.word	15917
 279 00dc 7C002E40 		.word	1076756604
 280 00e0 64F02E40 		.word	1076818020
 281 00e4 6CF02E40 		.word	1076818028
 282 00e8 DC050000 		.word	1500
 283 00ec 08030140 		.word	1073808136
 284 00f0 00000140 		.word	1073807360
 285 00f4 42FF0080 		.word	-2147418302
 286 00f8 00D41400 		.word	1364992
 287 00fc 0C030140 		.word	1073808140
 288 0100 43FF0080 		.word	-2147418301
 289 0104 04030140 		.word	1073808132
 290 0108 41FF0080 		.word	-2147418303
 291 010c 00030140 		.word	1073808128
ARM GAS  C:\Users\harri\AppData\Local\Temp\ccZ83DjJ.s 			page 11


 292 0110 40FF0080 		.word	-2147418304
 293 0114 08010B40 		.word	1074462984
 294 0118 00010B40 		.word	1074462976
 295 011c 38010140 		.word	1073807672
 296 0120 34010140 		.word	1073807668
 297 0124 30010140 		.word	1073807664
 298 0128 18010140 		.word	1073807640
 299 012c 00000000 		.word	CySysWdtIsr
 300              		.cfi_endproc
 301              	.LFE6:
 302              		.size	ClockSetup, .-ClockSetup
 303              		.section	.text.SetAnalogRoutingPumps,"ax",%progbits
 304              		.align	2
 305              		.global	SetAnalogRoutingPumps
 306              		.code	16
 307              		.thumb_func
 308              		.type	SetAnalogRoutingPumps, %function
 309              	SetAnalogRoutingPumps:
 310              	.LFB8:
 274:Generated_Source\PSoC4/cyfitter_cfg.c **** 
 275:Generated_Source\PSoC4/cyfitter_cfg.c **** 
 276:Generated_Source\PSoC4/cyfitter_cfg.c **** /* Analog API Functions */
 277:Generated_Source\PSoC4/cyfitter_cfg.c **** 
 278:Generated_Source\PSoC4/cyfitter_cfg.c **** 
 279:Generated_Source\PSoC4/cyfitter_cfg.c **** /*******************************************************************************
 280:Generated_Source\PSoC4/cyfitter_cfg.c **** * Function Name: AnalogSetDefault
 281:Generated_Source\PSoC4/cyfitter_cfg.c **** ********************************************************************************
 282:Generated_Source\PSoC4/cyfitter_cfg.c **** *
 283:Generated_Source\PSoC4/cyfitter_cfg.c **** * Summary:
 284:Generated_Source\PSoC4/cyfitter_cfg.c **** *  Sets up the analog portions of the chip to default values based on chip
 285:Generated_Source\PSoC4/cyfitter_cfg.c **** *  configuration options from the project.
 286:Generated_Source\PSoC4/cyfitter_cfg.c **** *
 287:Generated_Source\PSoC4/cyfitter_cfg.c **** * Parameters:
 288:Generated_Source\PSoC4/cyfitter_cfg.c **** *  void
 289:Generated_Source\PSoC4/cyfitter_cfg.c **** *
 290:Generated_Source\PSoC4/cyfitter_cfg.c **** * Return:
 291:Generated_Source\PSoC4/cyfitter_cfg.c **** *  void
 292:Generated_Source\PSoC4/cyfitter_cfg.c **** *
 293:Generated_Source\PSoC4/cyfitter_cfg.c **** *******************************************************************************/
 294:Generated_Source\PSoC4/cyfitter_cfg.c **** static void AnalogSetDefault(void);
 295:Generated_Source\PSoC4/cyfitter_cfg.c **** static void AnalogSetDefault(void)
 296:Generated_Source\PSoC4/cyfitter_cfg.c **** {
 297:Generated_Source\PSoC4/cyfitter_cfg.c **** 	CY_SET_XTND_REG32((void CYFAR *)CYREG_HSIOM_AMUX_SPLIT_CTL2, 0x00000003u);
 298:Generated_Source\PSoC4/cyfitter_cfg.c **** 	CY_SET_XTND_REG32((void CYFAR *)CYREG_CTBM0_DFT_CTRL, 0x00000003u);
 299:Generated_Source\PSoC4/cyfitter_cfg.c **** 	CY_SET_XTND_REG32((void CYFAR *)CYREG_CTBM1_DFT_CTRL, 0x00000003u);
 300:Generated_Source\PSoC4/cyfitter_cfg.c **** 	CY_SET_XTND_REG32((void CYFAR *)CYREG_SAR_CTRL, 0x80000000u);
 301:Generated_Source\PSoC4/cyfitter_cfg.c **** 	CY_SET_XTND_REG32((void CYFAR *)CYREG_SAR_MUX_SWITCH0, 0x00040000u);
 302:Generated_Source\PSoC4/cyfitter_cfg.c **** 	CY_SET_XTND_REG32((void CYFAR *)CYREG_PASS_DSAB_DSAB_CTRL, 0x00000000u);
 303:Generated_Source\PSoC4/cyfitter_cfg.c **** 	SetAnalogRoutingPumps(1);
 304:Generated_Source\PSoC4/cyfitter_cfg.c **** }
 305:Generated_Source\PSoC4/cyfitter_cfg.c **** 
 306:Generated_Source\PSoC4/cyfitter_cfg.c **** 
 307:Generated_Source\PSoC4/cyfitter_cfg.c **** /*******************************************************************************
 308:Generated_Source\PSoC4/cyfitter_cfg.c **** * Function Name: SetAnalogRoutingPumps
 309:Generated_Source\PSoC4/cyfitter_cfg.c **** ********************************************************************************
 310:Generated_Source\PSoC4/cyfitter_cfg.c **** *
 311:Generated_Source\PSoC4/cyfitter_cfg.c **** * Summary:
ARM GAS  C:\Users\harri\AppData\Local\Temp\ccZ83DjJ.s 			page 12


 312:Generated_Source\PSoC4/cyfitter_cfg.c **** * Enables or disables the analog pumps feeding analog routing switches.
 313:Generated_Source\PSoC4/cyfitter_cfg.c **** * Intended to be called at startup, based on the Vdda system configuration;
 314:Generated_Source\PSoC4/cyfitter_cfg.c **** * may be called during operation when the user informs us that the Vdda voltage crossed the pump th
 315:Generated_Source\PSoC4/cyfitter_cfg.c **** *
 316:Generated_Source\PSoC4/cyfitter_cfg.c **** * Parameters:
 317:Generated_Source\PSoC4/cyfitter_cfg.c **** *  enabled - 1 to enable the pumps, 0 to disable the pumps
 318:Generated_Source\PSoC4/cyfitter_cfg.c **** *
 319:Generated_Source\PSoC4/cyfitter_cfg.c **** * Return:
 320:Generated_Source\PSoC4/cyfitter_cfg.c **** *  void
 321:Generated_Source\PSoC4/cyfitter_cfg.c **** *
 322:Generated_Source\PSoC4/cyfitter_cfg.c **** *******************************************************************************/
 323:Generated_Source\PSoC4/cyfitter_cfg.c **** void SetAnalogRoutingPumps(uint8 enabled)
 324:Generated_Source\PSoC4/cyfitter_cfg.c **** {
 311              		.loc 1 324 0
 312              		.cfi_startproc
 313              		@ args = 0, pretend = 0, frame = 0
 314              		@ frame_needed = 0, uses_anonymous_args = 0
 315              		@ link register save eliminated.
 316              	.LVL23:
 325:Generated_Source\PSoC4/cyfitter_cfg.c **** 	uint32 regValue = CY_GET_XTND_REG32((void *)(CYREG_SAR_PUMP_CTRL));
 317              		.loc 1 325 0
 318 0000 064B     		ldr	r3, .L13
 319 0002 1B68     		ldr	r3, [r3]
 320              	.LVL24:
 326:Generated_Source\PSoC4/cyfitter_cfg.c **** 	if (enabled != 0u)
 321              		.loc 1 326 0
 322 0004 0028     		cmp	r0, #0
 323 0006 03D0     		beq	.L11
 327:Generated_Source\PSoC4/cyfitter_cfg.c **** 	{
 328:Generated_Source\PSoC4/cyfitter_cfg.c **** 		regValue |= 0x80000000u;
 324              		.loc 1 328 0
 325 0008 8022     		movs	r2, #128
 326 000a 1206     		lsls	r2, r2, #24
 327 000c 1343     		orrs	r3, r2
 328              	.LVL25:
 329 000e 01E0     		b	.L12
 330              	.L11:
 329:Generated_Source\PSoC4/cyfitter_cfg.c **** 	}
 330:Generated_Source\PSoC4/cyfitter_cfg.c **** 	else
 331:Generated_Source\PSoC4/cyfitter_cfg.c **** 	{
 332:Generated_Source\PSoC4/cyfitter_cfg.c **** 		regValue &= ~0x80000000u;
 331              		.loc 1 332 0
 332 0010 5B00     		lsls	r3, r3, #1
 333              	.LVL26:
 334 0012 5B08     		lsrs	r3, r3, #1
 335              	.LVL27:
 336              	.L12:
 333:Generated_Source\PSoC4/cyfitter_cfg.c **** 	}
 334:Generated_Source\PSoC4/cyfitter_cfg.c **** 	CY_SET_XTND_REG32((void *)(CYREG_SAR_PUMP_CTRL), regValue);
 337              		.loc 1 334 0
 338 0014 014A     		ldr	r2, .L13
 339 0016 1360     		str	r3, [r2]
 335:Generated_Source\PSoC4/cyfitter_cfg.c **** }
 340              		.loc 1 335 0
 341              		@ sp needed
 342 0018 7047     		bx	lr
 343              	.L14:
ARM GAS  C:\Users\harri\AppData\Local\Temp\ccZ83DjJ.s 			page 13


 344 001a C046     		.align	2
 345              	.L13:
 346 001c 80033A40 		.word	1077543808
 347              		.cfi_endproc
 348              	.LFE8:
 349              		.size	SetAnalogRoutingPumps, .-SetAnalogRoutingPumps
 350              		.section	.text.AnalogSetDefault,"ax",%progbits
 351              		.align	2
 352              		.code	16
 353              		.thumb_func
 354              		.type	AnalogSetDefault, %function
 355              	AnalogSetDefault:
 356              	.LFB7:
 296:Generated_Source\PSoC4/cyfitter_cfg.c **** 	CY_SET_XTND_REG32((void CYFAR *)CYREG_HSIOM_AMUX_SPLIT_CTL2, 0x00000003u);
 357              		.loc 1 296 0
 358              		.cfi_startproc
 359              		@ args = 0, pretend = 0, frame = 0
 360              		@ frame_needed = 0, uses_anonymous_args = 0
 361 0000 10B5     		push	{r4, lr}
 362              		.cfi_def_cfa_offset 8
 363              		.cfi_offset 4, -8
 364              		.cfi_offset 14, -4
 297:Generated_Source\PSoC4/cyfitter_cfg.c **** 	CY_SET_XTND_REG32((void CYFAR *)CYREG_CTBM0_DFT_CTRL, 0x00000003u);
 365              		.loc 1 297 0
 366 0002 0323     		movs	r3, #3
 367 0004 0A4A     		ldr	r2, .L16
 368 0006 1360     		str	r3, [r2]
 298:Generated_Source\PSoC4/cyfitter_cfg.c **** 	CY_SET_XTND_REG32((void CYFAR *)CYREG_CTBM1_DFT_CTRL, 0x00000003u);
 369              		.loc 1 298 0
 370 0008 0A4A     		ldr	r2, .L16+4
 371 000a 1360     		str	r3, [r2]
 299:Generated_Source\PSoC4/cyfitter_cfg.c **** 	CY_SET_XTND_REG32((void CYFAR *)CYREG_SAR_CTRL, 0x80000000u);
 372              		.loc 1 299 0
 373 000c 0A4A     		ldr	r2, .L16+8
 374 000e 1360     		str	r3, [r2]
 300:Generated_Source\PSoC4/cyfitter_cfg.c **** 	CY_SET_XTND_REG32((void CYFAR *)CYREG_SAR_MUX_SWITCH0, 0x00040000u);
 375              		.loc 1 300 0
 376 0010 8022     		movs	r2, #128
 377 0012 1206     		lsls	r2, r2, #24
 378 0014 094B     		ldr	r3, .L16+12
 379 0016 1A60     		str	r2, [r3]
 301:Generated_Source\PSoC4/cyfitter_cfg.c **** 	CY_SET_XTND_REG32((void CYFAR *)CYREG_PASS_DSAB_DSAB_CTRL, 0x00000000u);
 380              		.loc 1 301 0
 381 0018 8022     		movs	r2, #128
 382 001a D202     		lsls	r2, r2, #11
 383 001c 084B     		ldr	r3, .L16+16
 384 001e 1A60     		str	r2, [r3]
 302:Generated_Source\PSoC4/cyfitter_cfg.c **** 	SetAnalogRoutingPumps(1);
 385              		.loc 1 302 0
 386 0020 0022     		movs	r2, #0
 387 0022 084B     		ldr	r3, .L16+20
 388 0024 1A60     		str	r2, [r3]
 303:Generated_Source\PSoC4/cyfitter_cfg.c **** }
 389              		.loc 1 303 0
 390 0026 0120     		movs	r0, #1
 391 0028 FFF7FEFF 		bl	SetAnalogRoutingPumps
 392              	.LVL28:
ARM GAS  C:\Users\harri\AppData\Local\Temp\ccZ83DjJ.s 			page 14


 304:Generated_Source\PSoC4/cyfitter_cfg.c **** 
 393              		.loc 1 304 0
 394              		@ sp needed
 395 002c 10BD     		pop	{r4, pc}
 396              	.L17:
 397 002e C046     		.align	2
 398              	.L16:
 399 0030 08210240 		.word	1073881352
 400 0034 30003040 		.word	1076887600
 401 0038 30003140 		.word	1076953136
 402 003c 00003A40 		.word	1077542912
 403 0040 00033A40 		.word	1077543680
 404 0044 000E3F40 		.word	1077874176
 405              		.cfi_endproc
 406              	.LFE7:
 407              		.size	AnalogSetDefault, .-AnalogSetDefault
 408              		.section	.psocinit
 409              		.align	2
 410              		.global	cyfitter_cfg
 411              		.code	16
 412              		.thumb_func
 413              		.type	cyfitter_cfg, %function
 414              	cyfitter_cfg:
 415              	.LFB9:
 336:Generated_Source\PSoC4/cyfitter_cfg.c **** 
 337:Generated_Source\PSoC4/cyfitter_cfg.c **** 
 338:Generated_Source\PSoC4/cyfitter_cfg.c **** 
 339:Generated_Source\PSoC4/cyfitter_cfg.c **** 
 340:Generated_Source\PSoC4/cyfitter_cfg.c **** /*******************************************************************************
 341:Generated_Source\PSoC4/cyfitter_cfg.c **** * Function Name: cyfitter_cfg
 342:Generated_Source\PSoC4/cyfitter_cfg.c **** ********************************************************************************
 343:Generated_Source\PSoC4/cyfitter_cfg.c **** * Summary:
 344:Generated_Source\PSoC4/cyfitter_cfg.c **** *  This function is called by the start-up code for the selected device. It
 345:Generated_Source\PSoC4/cyfitter_cfg.c **** *  performs all of the necessary device configuration based on the design
 346:Generated_Source\PSoC4/cyfitter_cfg.c **** *  settings.  This includes settings from the Design Wide Resources (DWR) such
 347:Generated_Source\PSoC4/cyfitter_cfg.c **** *  as Clocks and Pins as well as any component configuration that is necessary.
 348:Generated_Source\PSoC4/cyfitter_cfg.c **** *
 349:Generated_Source\PSoC4/cyfitter_cfg.c **** * Parameters:
 350:Generated_Source\PSoC4/cyfitter_cfg.c **** *   void
 351:Generated_Source\PSoC4/cyfitter_cfg.c **** *
 352:Generated_Source\PSoC4/cyfitter_cfg.c **** * Return:
 353:Generated_Source\PSoC4/cyfitter_cfg.c **** *   void
 354:Generated_Source\PSoC4/cyfitter_cfg.c **** *
 355:Generated_Source\PSoC4/cyfitter_cfg.c **** *******************************************************************************/
 356:Generated_Source\PSoC4/cyfitter_cfg.c **** CY_CFG_SECTION
 357:Generated_Source\PSoC4/cyfitter_cfg.c **** void cyfitter_cfg(void)
 358:Generated_Source\PSoC4/cyfitter_cfg.c **** {
 416              		.loc 1 358 0
 417              		.cfi_startproc
 418              		@ args = 0, pretend = 0, frame = 0
 419              		@ frame_needed = 0, uses_anonymous_args = 0
 420 0130 10B5     		push	{r4, lr}
 421              		.cfi_def_cfa_offset 8
 422              		.cfi_offset 4, -8
 423              		.cfi_offset 14, -4
 359:Generated_Source\PSoC4/cyfitter_cfg.c **** 	/* Disable interrupts by default. Let user enable if/when they want. */
 360:Generated_Source\PSoC4/cyfitter_cfg.c **** 	CyGlobalIntDisable;
ARM GAS  C:\Users\harri\AppData\Local\Temp\ccZ83DjJ.s 			page 15


 424              		.loc 1 360 0
 425              		.syntax divided
 426              	@ 360 "Generated_Source\PSoC4\cyfitter_cfg.c" 1
 427 0132 72B6     		CPSID   i
 428              	@ 0 "" 2
 361:Generated_Source\PSoC4/cyfitter_cfg.c **** 
 362:Generated_Source\PSoC4/cyfitter_cfg.c **** 	CY_SET_REG32((void *)(CYREG_BLE_BLESS_LL_DSM_CTRL), 0x00000000u);
 429              		.loc 1 362 0
 430              		.thumb
 431              		.syntax unified
 432 0134 0022     		movs	r2, #0
 433 0136 354B     		ldr	r3, .L21
 434 0138 1A60     		str	r2, [r3]
 435              	.LVL29:
 436              	.LBB3:
 363:Generated_Source\PSoC4/cyfitter_cfg.c **** 
 364:Generated_Source\PSoC4/cyfitter_cfg.c **** 	{
 365:Generated_Source\PSoC4/cyfitter_cfg.c **** 		static const uint32 CYCODE cy_cfg_addr_table[] = {
 366:Generated_Source\PSoC4/cyfitter_cfg.c **** 			0x400F0003u, /* Base address: 0x400F0000 Count: 3 */
 367:Generated_Source\PSoC4/cyfitter_cfg.c **** 			0x400F302Du, /* Base address: 0x400F3000 Count: 45 */
 368:Generated_Source\PSoC4/cyfitter_cfg.c **** 			0x400F3118u, /* Base address: 0x400F3100 Count: 24 */
 369:Generated_Source\PSoC4/cyfitter_cfg.c **** 			0x400F3252u, /* Base address: 0x400F3200 Count: 82 */
 370:Generated_Source\PSoC4/cyfitter_cfg.c **** 			0x400F3331u, /* Base address: 0x400F3300 Count: 49 */
 371:Generated_Source\PSoC4/cyfitter_cfg.c **** 			0x400F4109u, /* Base address: 0x400F4100 Count: 9 */
 372:Generated_Source\PSoC4/cyfitter_cfg.c **** 			0x400F4202u, /* Base address: 0x400F4200 Count: 2 */
 373:Generated_Source\PSoC4/cyfitter_cfg.c **** 			0x400F4306u, /* Base address: 0x400F4300 Count: 6 */
 374:Generated_Source\PSoC4/cyfitter_cfg.c **** 			0x400F6002u, /* Base address: 0x400F6000 Count: 2 */
 375:Generated_Source\PSoC4/cyfitter_cfg.c **** 		};
 376:Generated_Source\PSoC4/cyfitter_cfg.c **** 
 377:Generated_Source\PSoC4/cyfitter_cfg.c **** 		static const cy_cfg_addrvalue_t CYCODE cy_cfg_data_table[] = {
 378:Generated_Source\PSoC4/cyfitter_cfg.c **** 			{0x81u, 0x0Du},
 379:Generated_Source\PSoC4/cyfitter_cfg.c **** 			{0x82u, 0x0Du},
 380:Generated_Source\PSoC4/cyfitter_cfg.c **** 			{0x83u, 0x0Du},
 381:Generated_Source\PSoC4/cyfitter_cfg.c **** 			{0x30u, 0x01u},
 382:Generated_Source\PSoC4/cyfitter_cfg.c **** 			{0x3Eu, 0x01u},
 383:Generated_Source\PSoC4/cyfitter_cfg.c **** 			{0x58u, 0x04u},
 384:Generated_Source\PSoC4/cyfitter_cfg.c **** 			{0x5Fu, 0x01u},
 385:Generated_Source\PSoC4/cyfitter_cfg.c **** 			{0x8Fu, 0x01u},
 386:Generated_Source\PSoC4/cyfitter_cfg.c **** 			{0x94u, 0x01u},
 387:Generated_Source\PSoC4/cyfitter_cfg.c **** 			{0x9Au, 0x07u},
 388:Generated_Source\PSoC4/cyfitter_cfg.c **** 			{0x9Eu, 0x04u},
 389:Generated_Source\PSoC4/cyfitter_cfg.c **** 			{0xA3u, 0x01u},
 390:Generated_Source\PSoC4/cyfitter_cfg.c **** 			{0xAEu, 0x08u},
 391:Generated_Source\PSoC4/cyfitter_cfg.c **** 			{0xB0u, 0x04u},
 392:Generated_Source\PSoC4/cyfitter_cfg.c **** 			{0xB2u, 0x02u},
 393:Generated_Source\PSoC4/cyfitter_cfg.c **** 			{0xB4u, 0x01u},
 394:Generated_Source\PSoC4/cyfitter_cfg.c **** 			{0xB5u, 0x01u},
 395:Generated_Source\PSoC4/cyfitter_cfg.c **** 			{0xB6u, 0x08u},
 396:Generated_Source\PSoC4/cyfitter_cfg.c **** 			{0xBFu, 0x10u},
 397:Generated_Source\PSoC4/cyfitter_cfg.c **** 			{0xC0u, 0x10u},
 398:Generated_Source\PSoC4/cyfitter_cfg.c **** 			{0xC1u, 0x05u},
 399:Generated_Source\PSoC4/cyfitter_cfg.c **** 			{0xC5u, 0xD1u},
 400:Generated_Source\PSoC4/cyfitter_cfg.c **** 			{0xC6u, 0x02u},
 401:Generated_Source\PSoC4/cyfitter_cfg.c **** 			{0xC8u, 0x07u},
 402:Generated_Source\PSoC4/cyfitter_cfg.c **** 			{0xC9u, 0xFFu},
 403:Generated_Source\PSoC4/cyfitter_cfg.c **** 			{0xCAu, 0xFFu},
 404:Generated_Source\PSoC4/cyfitter_cfg.c **** 			{0xCBu, 0xFFu},
ARM GAS  C:\Users\harri\AppData\Local\Temp\ccZ83DjJ.s 			page 16


 405:Generated_Source\PSoC4/cyfitter_cfg.c **** 			{0xCDu, 0xA0u},
 406:Generated_Source\PSoC4/cyfitter_cfg.c **** 			{0xCFu, 0x04u},
 407:Generated_Source\PSoC4/cyfitter_cfg.c **** 			{0xD0u, 0x18u},
 408:Generated_Source\PSoC4/cyfitter_cfg.c **** 			{0xD2u, 0x80u},
 409:Generated_Source\PSoC4/cyfitter_cfg.c **** 			{0xD4u, 0x05u},
 410:Generated_Source\PSoC4/cyfitter_cfg.c **** 			{0xD8u, 0x04u},
 411:Generated_Source\PSoC4/cyfitter_cfg.c **** 			{0xD9u, 0x04u},
 412:Generated_Source\PSoC4/cyfitter_cfg.c **** 			{0xDAu, 0x04u},
 413:Generated_Source\PSoC4/cyfitter_cfg.c **** 			{0xDBu, 0x04u},
 414:Generated_Source\PSoC4/cyfitter_cfg.c **** 			{0xDCu, 0x03u},
 415:Generated_Source\PSoC4/cyfitter_cfg.c **** 			{0xDDu, 0x33u},
 416:Generated_Source\PSoC4/cyfitter_cfg.c **** 			{0xDFu, 0x01u},
 417:Generated_Source\PSoC4/cyfitter_cfg.c **** 			{0xE0u, 0x40u},
 418:Generated_Source\PSoC4/cyfitter_cfg.c **** 			{0xE2u, 0xC0u},
 419:Generated_Source\PSoC4/cyfitter_cfg.c **** 			{0xE4u, 0x40u},
 420:Generated_Source\PSoC4/cyfitter_cfg.c **** 			{0xE5u, 0x40u},
 421:Generated_Source\PSoC4/cyfitter_cfg.c **** 			{0xE6u, 0xC0u},
 422:Generated_Source\PSoC4/cyfitter_cfg.c **** 			{0xE8u, 0xC0u},
 423:Generated_Source\PSoC4/cyfitter_cfg.c **** 			{0xEAu, 0xC0u},
 424:Generated_Source\PSoC4/cyfitter_cfg.c **** 			{0xECu, 0xC0u},
 425:Generated_Source\PSoC4/cyfitter_cfg.c **** 			{0xEEu, 0xC0u},
 426:Generated_Source\PSoC4/cyfitter_cfg.c **** 			{0x0Du, 0x80u},
 427:Generated_Source\PSoC4/cyfitter_cfg.c **** 			{0x0Eu, 0x20u},
 428:Generated_Source\PSoC4/cyfitter_cfg.c **** 			{0x0Fu, 0x08u},
 429:Generated_Source\PSoC4/cyfitter_cfg.c **** 			{0x17u, 0x80u},
 430:Generated_Source\PSoC4/cyfitter_cfg.c **** 			{0x1Au, 0x80u},
 431:Generated_Source\PSoC4/cyfitter_cfg.c **** 			{0x1Du, 0x80u},
 432:Generated_Source\PSoC4/cyfitter_cfg.c **** 			{0x1Eu, 0x20u},
 433:Generated_Source\PSoC4/cyfitter_cfg.c **** 			{0x1Fu, 0x91u},
 434:Generated_Source\PSoC4/cyfitter_cfg.c **** 			{0x27u, 0x08u},
 435:Generated_Source\PSoC4/cyfitter_cfg.c **** 			{0x2Fu, 0x80u},
 436:Generated_Source\PSoC4/cyfitter_cfg.c **** 			{0x3Fu, 0x80u},
 437:Generated_Source\PSoC4/cyfitter_cfg.c **** 			{0x45u, 0x80u},
 438:Generated_Source\PSoC4/cyfitter_cfg.c **** 			{0x4Fu, 0x89u},
 439:Generated_Source\PSoC4/cyfitter_cfg.c **** 			{0x57u, 0x40u},
 440:Generated_Source\PSoC4/cyfitter_cfg.c **** 			{0x5Cu, 0x80u},
 441:Generated_Source\PSoC4/cyfitter_cfg.c **** 			{0x5Fu, 0x09u},
 442:Generated_Source\PSoC4/cyfitter_cfg.c **** 			{0x77u, 0x80u},
 443:Generated_Source\PSoC4/cyfitter_cfg.c **** 			{0xC2u, 0xE0u},
 444:Generated_Source\PSoC4/cyfitter_cfg.c **** 			{0xC4u, 0x80u},
 445:Generated_Source\PSoC4/cyfitter_cfg.c **** 			{0xCAu, 0x80u},
 446:Generated_Source\PSoC4/cyfitter_cfg.c **** 			{0xCEu, 0x10u},
 447:Generated_Source\PSoC4/cyfitter_cfg.c **** 			{0xD0u, 0x10u},
 448:Generated_Source\PSoC4/cyfitter_cfg.c **** 			{0xD2u, 0x10u},
 449:Generated_Source\PSoC4/cyfitter_cfg.c **** 			{0xD6u, 0xD0u},
 450:Generated_Source\PSoC4/cyfitter_cfg.c **** 			{0x0Au, 0x01u},
 451:Generated_Source\PSoC4/cyfitter_cfg.c **** 			{0x0Fu, 0x01u},
 452:Generated_Source\PSoC4/cyfitter_cfg.c **** 			{0x14u, 0x04u},
 453:Generated_Source\PSoC4/cyfitter_cfg.c **** 			{0x1Au, 0x07u},
 454:Generated_Source\PSoC4/cyfitter_cfg.c **** 			{0x27u, 0x01u},
 455:Generated_Source\PSoC4/cyfitter_cfg.c **** 			{0x2Eu, 0x08u},
 456:Generated_Source\PSoC4/cyfitter_cfg.c **** 			{0x30u, 0x04u},
 457:Generated_Source\PSoC4/cyfitter_cfg.c **** 			{0x32u, 0x02u},
 458:Generated_Source\PSoC4/cyfitter_cfg.c **** 			{0x34u, 0x08u},
 459:Generated_Source\PSoC4/cyfitter_cfg.c **** 			{0x35u, 0x01u},
 460:Generated_Source\PSoC4/cyfitter_cfg.c **** 			{0x36u, 0x01u},
 461:Generated_Source\PSoC4/cyfitter_cfg.c **** 			{0x3Fu, 0x10u},
ARM GAS  C:\Users\harri\AppData\Local\Temp\ccZ83DjJ.s 			page 17


 462:Generated_Source\PSoC4/cyfitter_cfg.c **** 			{0x40u, 0x20u},
 463:Generated_Source\PSoC4/cyfitter_cfg.c **** 			{0x41u, 0x05u},
 464:Generated_Source\PSoC4/cyfitter_cfg.c **** 			{0x45u, 0xD1u},
 465:Generated_Source\PSoC4/cyfitter_cfg.c **** 			{0x46u, 0x02u},
 466:Generated_Source\PSoC4/cyfitter_cfg.c **** 			{0x48u, 0x07u},
 467:Generated_Source\PSoC4/cyfitter_cfg.c **** 			{0x49u, 0xFFu},
 468:Generated_Source\PSoC4/cyfitter_cfg.c **** 			{0x4Au, 0xFFu},
 469:Generated_Source\PSoC4/cyfitter_cfg.c **** 			{0x4Bu, 0xFFu},
 470:Generated_Source\PSoC4/cyfitter_cfg.c **** 			{0x4Du, 0xA0u},
 471:Generated_Source\PSoC4/cyfitter_cfg.c **** 			{0x4Fu, 0x04u},
 472:Generated_Source\PSoC4/cyfitter_cfg.c **** 			{0x50u, 0x18u},
 473:Generated_Source\PSoC4/cyfitter_cfg.c **** 			{0x52u, 0x80u},
 474:Generated_Source\PSoC4/cyfitter_cfg.c **** 			{0x54u, 0x05u},
 475:Generated_Source\PSoC4/cyfitter_cfg.c **** 			{0x58u, 0x04u},
 476:Generated_Source\PSoC4/cyfitter_cfg.c **** 			{0x59u, 0x04u},
 477:Generated_Source\PSoC4/cyfitter_cfg.c **** 			{0x5Au, 0x04u},
 478:Generated_Source\PSoC4/cyfitter_cfg.c **** 			{0x5Bu, 0x04u},
 479:Generated_Source\PSoC4/cyfitter_cfg.c **** 			{0x5Cu, 0x02u},
 480:Generated_Source\PSoC4/cyfitter_cfg.c **** 			{0x5Du, 0x22u},
 481:Generated_Source\PSoC4/cyfitter_cfg.c **** 			{0x5Fu, 0x01u},
 482:Generated_Source\PSoC4/cyfitter_cfg.c **** 			{0x60u, 0x40u},
 483:Generated_Source\PSoC4/cyfitter_cfg.c **** 			{0x62u, 0xC0u},
 484:Generated_Source\PSoC4/cyfitter_cfg.c **** 			{0x64u, 0x40u},
 485:Generated_Source\PSoC4/cyfitter_cfg.c **** 			{0x65u, 0x40u},
 486:Generated_Source\PSoC4/cyfitter_cfg.c **** 			{0x66u, 0xC0u},
 487:Generated_Source\PSoC4/cyfitter_cfg.c **** 			{0x68u, 0xC0u},
 488:Generated_Source\PSoC4/cyfitter_cfg.c **** 			{0x6Au, 0xC0u},
 489:Generated_Source\PSoC4/cyfitter_cfg.c **** 			{0x6Cu, 0xC0u},
 490:Generated_Source\PSoC4/cyfitter_cfg.c **** 			{0x6Eu, 0xC0u},
 491:Generated_Source\PSoC4/cyfitter_cfg.c **** 			{0x86u, 0x01u},
 492:Generated_Source\PSoC4/cyfitter_cfg.c **** 			{0x87u, 0x01u},
 493:Generated_Source\PSoC4/cyfitter_cfg.c **** 			{0x92u, 0x08u},
 494:Generated_Source\PSoC4/cyfitter_cfg.c **** 			{0x93u, 0x01u},
 495:Generated_Source\PSoC4/cyfitter_cfg.c **** 			{0x9Cu, 0x04u},
 496:Generated_Source\PSoC4/cyfitter_cfg.c **** 			{0xA6u, 0x07u},
 497:Generated_Source\PSoC4/cyfitter_cfg.c **** 			{0xB0u, 0x04u},
 498:Generated_Source\PSoC4/cyfitter_cfg.c **** 			{0xB2u, 0x01u},
 499:Generated_Source\PSoC4/cyfitter_cfg.c **** 			{0xB3u, 0x01u},
 500:Generated_Source\PSoC4/cyfitter_cfg.c **** 			{0xB4u, 0x08u},
 501:Generated_Source\PSoC4/cyfitter_cfg.c **** 			{0xB6u, 0x02u},
 502:Generated_Source\PSoC4/cyfitter_cfg.c **** 			{0xBFu, 0x04u},
 503:Generated_Source\PSoC4/cyfitter_cfg.c **** 			{0xC0u, 0x20u},
 504:Generated_Source\PSoC4/cyfitter_cfg.c **** 			{0xC1u, 0x05u},
 505:Generated_Source\PSoC4/cyfitter_cfg.c **** 			{0xC5u, 0xD1u},
 506:Generated_Source\PSoC4/cyfitter_cfg.c **** 			{0xC7u, 0x20u},
 507:Generated_Source\PSoC4/cyfitter_cfg.c **** 			{0xC8u, 0x23u},
 508:Generated_Source\PSoC4/cyfitter_cfg.c **** 			{0xC9u, 0xFFu},
 509:Generated_Source\PSoC4/cyfitter_cfg.c **** 			{0xCAu, 0xFFu},
 510:Generated_Source\PSoC4/cyfitter_cfg.c **** 			{0xCBu, 0xFFu},
 511:Generated_Source\PSoC4/cyfitter_cfg.c **** 			{0xCDu, 0xA0u},
 512:Generated_Source\PSoC4/cyfitter_cfg.c **** 			{0xCFu, 0x04u},
 513:Generated_Source\PSoC4/cyfitter_cfg.c **** 			{0xD0u, 0x18u},
 514:Generated_Source\PSoC4/cyfitter_cfg.c **** 			{0xD2u, 0x80u},
 515:Generated_Source\PSoC4/cyfitter_cfg.c **** 			{0xD4u, 0x05u},
 516:Generated_Source\PSoC4/cyfitter_cfg.c **** 			{0xD8u, 0x04u},
 517:Generated_Source\PSoC4/cyfitter_cfg.c **** 			{0xD9u, 0x04u},
 518:Generated_Source\PSoC4/cyfitter_cfg.c **** 			{0xDAu, 0x04u},
ARM GAS  C:\Users\harri\AppData\Local\Temp\ccZ83DjJ.s 			page 18


 519:Generated_Source\PSoC4/cyfitter_cfg.c **** 			{0xDBu, 0x04u},
 520:Generated_Source\PSoC4/cyfitter_cfg.c **** 			{0xDCu, 0x01u},
 521:Generated_Source\PSoC4/cyfitter_cfg.c **** 			{0xDDu, 0x11u},
 522:Generated_Source\PSoC4/cyfitter_cfg.c **** 			{0xDFu, 0x01u},
 523:Generated_Source\PSoC4/cyfitter_cfg.c **** 			{0xE0u, 0x40u},
 524:Generated_Source\PSoC4/cyfitter_cfg.c **** 			{0xE2u, 0xC0u},
 525:Generated_Source\PSoC4/cyfitter_cfg.c **** 			{0xE4u, 0x40u},
 526:Generated_Source\PSoC4/cyfitter_cfg.c **** 			{0xE5u, 0x40u},
 527:Generated_Source\PSoC4/cyfitter_cfg.c **** 			{0xE6u, 0xC0u},
 528:Generated_Source\PSoC4/cyfitter_cfg.c **** 			{0xE8u, 0xC0u},
 529:Generated_Source\PSoC4/cyfitter_cfg.c **** 			{0xEAu, 0xC0u},
 530:Generated_Source\PSoC4/cyfitter_cfg.c **** 			{0xECu, 0xC0u},
 531:Generated_Source\PSoC4/cyfitter_cfg.c **** 			{0xEEu, 0xC0u},
 532:Generated_Source\PSoC4/cyfitter_cfg.c **** 			{0x00u, 0x04u},
 533:Generated_Source\PSoC4/cyfitter_cfg.c **** 			{0x05u, 0x10u},
 534:Generated_Source\PSoC4/cyfitter_cfg.c **** 			{0x09u, 0x02u},
 535:Generated_Source\PSoC4/cyfitter_cfg.c **** 			{0x0Au, 0x01u},
 536:Generated_Source\PSoC4/cyfitter_cfg.c **** 			{0x0Eu, 0x10u},
 537:Generated_Source\PSoC4/cyfitter_cfg.c **** 			{0x0Fu, 0x08u},
 538:Generated_Source\PSoC4/cyfitter_cfg.c **** 			{0x10u, 0x20u},
 539:Generated_Source\PSoC4/cyfitter_cfg.c **** 			{0x17u, 0x80u},
 540:Generated_Source\PSoC4/cyfitter_cfg.c **** 			{0x18u, 0x04u},
 541:Generated_Source\PSoC4/cyfitter_cfg.c **** 			{0x19u, 0x04u},
 542:Generated_Source\PSoC4/cyfitter_cfg.c **** 			{0x1Au, 0x41u},
 543:Generated_Source\PSoC4/cyfitter_cfg.c **** 			{0x1Du, 0x30u},
 544:Generated_Source\PSoC4/cyfitter_cfg.c **** 			{0x1Eu, 0x90u},
 545:Generated_Source\PSoC4/cyfitter_cfg.c **** 			{0x1Fu, 0x90u},
 546:Generated_Source\PSoC4/cyfitter_cfg.c **** 			{0x22u, 0x04u},
 547:Generated_Source\PSoC4/cyfitter_cfg.c **** 			{0x27u, 0x08u},
 548:Generated_Source\PSoC4/cyfitter_cfg.c **** 			{0x2Fu, 0x10u},
 549:Generated_Source\PSoC4/cyfitter_cfg.c **** 			{0x30u, 0x02u},
 550:Generated_Source\PSoC4/cyfitter_cfg.c **** 			{0x38u, 0x04u},
 551:Generated_Source\PSoC4/cyfitter_cfg.c **** 			{0x3Fu, 0x80u},
 552:Generated_Source\PSoC4/cyfitter_cfg.c **** 			{0x40u, 0x04u},
 553:Generated_Source\PSoC4/cyfitter_cfg.c **** 			{0x45u, 0x20u},
 554:Generated_Source\PSoC4/cyfitter_cfg.c **** 			{0x48u, 0x22u},
 555:Generated_Source\PSoC4/cyfitter_cfg.c **** 			{0x49u, 0x01u},
 556:Generated_Source\PSoC4/cyfitter_cfg.c **** 			{0x4Fu, 0x89u},
 557:Generated_Source\PSoC4/cyfitter_cfg.c **** 			{0x50u, 0x02u},
 558:Generated_Source\PSoC4/cyfitter_cfg.c **** 			{0x57u, 0x40u},
 559:Generated_Source\PSoC4/cyfitter_cfg.c **** 			{0x59u, 0x01u},
 560:Generated_Source\PSoC4/cyfitter_cfg.c **** 			{0x5Au, 0x48u},
 561:Generated_Source\PSoC4/cyfitter_cfg.c **** 			{0x5Eu, 0x80u},
 562:Generated_Source\PSoC4/cyfitter_cfg.c **** 			{0x5Fu, 0x09u},
 563:Generated_Source\PSoC4/cyfitter_cfg.c **** 			{0x71u, 0x02u},
 564:Generated_Source\PSoC4/cyfitter_cfg.c **** 			{0x77u, 0x80u},
 565:Generated_Source\PSoC4/cyfitter_cfg.c **** 			{0x87u, 0x80u},
 566:Generated_Source\PSoC4/cyfitter_cfg.c **** 			{0x8Du, 0x04u},
 567:Generated_Source\PSoC4/cyfitter_cfg.c **** 			{0x8Fu, 0x01u},
 568:Generated_Source\PSoC4/cyfitter_cfg.c **** 			{0x93u, 0x02u},
 569:Generated_Source\PSoC4/cyfitter_cfg.c **** 			{0xAAu, 0x40u},
 570:Generated_Source\PSoC4/cyfitter_cfg.c **** 			{0xACu, 0x80u},
 571:Generated_Source\PSoC4/cyfitter_cfg.c **** 			{0xAFu, 0x10u},
 572:Generated_Source\PSoC4/cyfitter_cfg.c **** 			{0xC0u, 0x44u},
 573:Generated_Source\PSoC4/cyfitter_cfg.c **** 			{0xC2u, 0x69u},
 574:Generated_Source\PSoC4/cyfitter_cfg.c **** 			{0xC4u, 0x84u},
 575:Generated_Source\PSoC4/cyfitter_cfg.c **** 			{0xCAu, 0x40u},
ARM GAS  C:\Users\harri\AppData\Local\Temp\ccZ83DjJ.s 			page 19


 576:Generated_Source\PSoC4/cyfitter_cfg.c **** 			{0xCCu, 0x01u},
 577:Generated_Source\PSoC4/cyfitter_cfg.c **** 			{0xCEu, 0x12u},
 578:Generated_Source\PSoC4/cyfitter_cfg.c **** 			{0xD0u, 0x24u},
 579:Generated_Source\PSoC4/cyfitter_cfg.c **** 			{0xD2u, 0x18u},
 580:Generated_Source\PSoC4/cyfitter_cfg.c **** 			{0xD6u, 0xDBu},
 581:Generated_Source\PSoC4/cyfitter_cfg.c **** 			{0x57u, 0x01u},
 582:Generated_Source\PSoC4/cyfitter_cfg.c **** 			{0x5Bu, 0x40u},
 583:Generated_Source\PSoC4/cyfitter_cfg.c **** 			{0x87u, 0x01u},
 584:Generated_Source\PSoC4/cyfitter_cfg.c **** 			{0x9Bu, 0x40u},
 585:Generated_Source\PSoC4/cyfitter_cfg.c **** 			{0xABu, 0x40u},
 586:Generated_Source\PSoC4/cyfitter_cfg.c **** 			{0xD4u, 0x80u},
 587:Generated_Source\PSoC4/cyfitter_cfg.c **** 			{0xD6u, 0x20u},
 588:Generated_Source\PSoC4/cyfitter_cfg.c **** 			{0xE6u, 0x10u},
 589:Generated_Source\PSoC4/cyfitter_cfg.c **** 			{0xEEu, 0x80u},
 590:Generated_Source\PSoC4/cyfitter_cfg.c **** 			{0x5Au, 0x80u},
 591:Generated_Source\PSoC4/cyfitter_cfg.c **** 			{0xD4u, 0x01u},
 592:Generated_Source\PSoC4/cyfitter_cfg.c **** 			{0x63u, 0x08u},
 593:Generated_Source\PSoC4/cyfitter_cfg.c **** 			{0x8Eu, 0x40u},
 594:Generated_Source\PSoC4/cyfitter_cfg.c **** 			{0x8Fu, 0x04u},
 595:Generated_Source\PSoC4/cyfitter_cfg.c **** 			{0x96u, 0x80u},
 596:Generated_Source\PSoC4/cyfitter_cfg.c **** 			{0xD8u, 0x02u},
 597:Generated_Source\PSoC4/cyfitter_cfg.c **** 			{0xE0u, 0x0Au},
 598:Generated_Source\PSoC4/cyfitter_cfg.c **** 			{0x01u, 0x0Eu},
 599:Generated_Source\PSoC4/cyfitter_cfg.c **** 			{0x10u, 0x0Eu},
 600:Generated_Source\PSoC4/cyfitter_cfg.c **** 		};
 601:Generated_Source\PSoC4/cyfitter_cfg.c **** 
 602:Generated_Source\PSoC4/cyfitter_cfg.c **** 
 603:Generated_Source\PSoC4/cyfitter_cfg.c **** 
 604:Generated_Source\PSoC4/cyfitter_cfg.c **** 		CYPACKED typedef struct {
 605:Generated_Source\PSoC4/cyfitter_cfg.c **** 			void CYFAR *address;
 606:Generated_Source\PSoC4/cyfitter_cfg.c **** 			uint16 size;
 607:Generated_Source\PSoC4/cyfitter_cfg.c **** 		} CYPACKED_ATTR cfg_memset_t;
 608:Generated_Source\PSoC4/cyfitter_cfg.c **** 
 609:Generated_Source\PSoC4/cyfitter_cfg.c **** 		static const cfg_memset_t CYCODE cfg_memset_list[] = {
 610:Generated_Source\PSoC4/cyfitter_cfg.c **** 			/* address, size */
 611:Generated_Source\PSoC4/cyfitter_cfg.c **** 			{(void CYFAR *)(CYDEV_UDB_P0_U0_BASE), 1024u},
 612:Generated_Source\PSoC4/cyfitter_cfg.c **** 			{(void CYFAR *)(CYDEV_UDB_DSI0_BASE), 1024u},
 613:Generated_Source\PSoC4/cyfitter_cfg.c **** 		};
 614:Generated_Source\PSoC4/cyfitter_cfg.c **** 
 615:Generated_Source\PSoC4/cyfitter_cfg.c **** 		uint8 CYDATA i;
 616:Generated_Source\PSoC4/cyfitter_cfg.c **** 
 617:Generated_Source\PSoC4/cyfitter_cfg.c **** 		/* Zero out critical memory blocks before beginning configuration */
 618:Generated_Source\PSoC4/cyfitter_cfg.c **** 		for (i = 0u; i < (sizeof(cfg_memset_list)/sizeof(cfg_memset_list[0])); i++)
 437              		.loc 1 618 0
 438 013a 0024     		movs	r4, #0
 439 013c 0FE0     		b	.L19
 440              	.LVL30:
 441              	.L20:
 442              	.LBB4:
 619:Generated_Source\PSoC4/cyfitter_cfg.c **** 		{
 620:Generated_Source\PSoC4/cyfitter_cfg.c **** 			const cfg_memset_t CYCODE * CYDATA ms = &cfg_memset_list[i];
 621:Generated_Source\PSoC4/cyfitter_cfg.c **** 			CYMEMZERO(ms->address, (size_t)(uint32)(ms->size));
 443              		.loc 1 621 0 discriminator 3
 444 013e 3448     		ldr	r0, .L21+4
 445 0140 6200     		lsls	r2, r4, #1
 446 0142 1319     		adds	r3, r2, r4
 447 0144 5900     		lsls	r1, r3, #1
ARM GAS  C:\Users\harri\AppData\Local\Temp\ccZ83DjJ.s 			page 20


 448 0146 0B00     		movs	r3, r1
 449 0148 4118     		adds	r1, r0, r1
 450 014a 8988     		ldrh	r1, [r1, #4]
 451 014c 1A5A     		ldrh	r2, [r3, r0]
 452 014e C318     		adds	r3, r0, r3
 453 0150 5888     		ldrh	r0, [r3, #2]
 454 0152 0004     		lsls	r0, r0, #16
 455 0154 1043     		orrs	r0, r2
 456 0156 FFF7FEFF 		bl	CYMEMZERO
 457              	.LVL31:
 458              	.LBE4:
 618:Generated_Source\PSoC4/cyfitter_cfg.c **** 		{
 459              		.loc 1 618 0 discriminator 3
 460 015a 0134     		adds	r4, r4, #1
 461              	.LVL32:
 462 015c E4B2     		uxtb	r4, r4
 463              	.LVL33:
 464              	.L19:
 618:Generated_Source\PSoC4/cyfitter_cfg.c **** 		{
 465              		.loc 1 618 0 is_stmt 0 discriminator 1
 466 015e 012C     		cmp	r4, #1
 467 0160 EDD9     		bls	.L20
 622:Generated_Source\PSoC4/cyfitter_cfg.c **** 		}
 623:Generated_Source\PSoC4/cyfitter_cfg.c **** 
 624:Generated_Source\PSoC4/cyfitter_cfg.c **** 		cfg_write_bytes32(cy_cfg_addr_table, cy_cfg_data_table);
 468              		.loc 1 624 0 is_stmt 1
 469 0162 2B49     		ldr	r1, .L21+4
 470 0164 0C31     		adds	r1, r1, #12
 471 0166 2B48     		ldr	r0, .L21+8
 472 0168 4830     		adds	r0, r0, #72
 473 016a FFF7FEFF 		bl	cfg_write_bytes32
 474              	.LVL34:
 625:Generated_Source\PSoC4/cyfitter_cfg.c **** 
 626:Generated_Source\PSoC4/cyfitter_cfg.c **** 		/* HSIOM Starting address: CYDEV_HSIOM_BASE */
 627:Generated_Source\PSoC4/cyfitter_cfg.c **** 		CY_SET_REG32((void *)(CYDEV_HSIOM_BASE), 0xEE000000u);
 475              		.loc 1 627 0
 476 016e EE22     		movs	r2, #238
 477 0170 1206     		lsls	r2, r2, #24
 478 0172 294B     		ldr	r3, .L21+12
 479 0174 1A60     		str	r2, [r3]
 628:Generated_Source\PSoC4/cyfitter_cfg.c **** 		CY_SET_REG32((void *)(CYREG_HSIOM_PORT_SEL1), 0x00003060u);
 480              		.loc 1 628 0
 481 0176 294A     		ldr	r2, .L21+16
 482 0178 294B     		ldr	r3, .L21+20
 483 017a 1A60     		str	r2, [r3]
 629:Generated_Source\PSoC4/cyfitter_cfg.c **** 		CY_SET_REG32((void *)(CYREG_HSIOM_PORT_SEL2), 0x00000030u);
 484              		.loc 1 629 0
 485 017c 3022     		movs	r2, #48
 486 017e 294B     		ldr	r3, .L21+24
 487 0180 1A60     		str	r2, [r3]
 630:Generated_Source\PSoC4/cyfitter_cfg.c **** 		CY_SET_REG32((void *)(CYREG_HSIOM_PORT_SEL3), 0x30000000u);
 488              		.loc 1 630 0
 489 0182 C022     		movs	r2, #192
 490 0184 9205     		lsls	r2, r2, #22
 491 0186 284B     		ldr	r3, .L21+28
 492 0188 1A60     		str	r2, [r3]
 631:Generated_Source\PSoC4/cyfitter_cfg.c **** 
ARM GAS  C:\Users\harri\AppData\Local\Temp\ccZ83DjJ.s 			page 21


 632:Generated_Source\PSoC4/cyfitter_cfg.c **** 		/* UDB_PA_0 Starting address: CYDEV_UDB_PA0_BASE */
 633:Generated_Source\PSoC4/cyfitter_cfg.c **** 		CY_SET_REG32((void *)(CYDEV_UDB_PA0_BASE), 0x00990000u);
 493              		.loc 1 633 0
 494 018a 9923     		movs	r3, #153
 495 018c 1B04     		lsls	r3, r3, #16
 496 018e 274A     		ldr	r2, .L21+32
 497 0190 1360     		str	r3, [r2]
 634:Generated_Source\PSoC4/cyfitter_cfg.c **** 
 635:Generated_Source\PSoC4/cyfitter_cfg.c **** 		/* UDB_PA_1 Starting address: CYDEV_UDB_PA1_BASE */
 636:Generated_Source\PSoC4/cyfitter_cfg.c **** 		CY_SET_REG32((void *)(CYDEV_UDB_PA1_BASE), 0x00990000u);
 498              		.loc 1 636 0
 499 0192 274A     		ldr	r2, .L21+36
 500 0194 1360     		str	r3, [r2]
 637:Generated_Source\PSoC4/cyfitter_cfg.c **** 		CY_SET_REG32((void *)(CYREG_UDB_PA1_CFG8), 0x00C80000u);
 501              		.loc 1 637 0
 502 0196 C821     		movs	r1, #200
 503 0198 0904     		lsls	r1, r1, #16
 504 019a 264A     		ldr	r2, .L21+40
 505 019c 1160     		str	r1, [r2]
 638:Generated_Source\PSoC4/cyfitter_cfg.c **** 
 639:Generated_Source\PSoC4/cyfitter_cfg.c **** 		/* UDB_PA_2 Starting address: CYDEV_UDB_PA2_BASE */
 640:Generated_Source\PSoC4/cyfitter_cfg.c **** 		CY_SET_REG32((void *)(CYDEV_UDB_PA2_BASE), 0x00990000u);
 506              		.loc 1 640 0
 507 019e 264A     		ldr	r2, .L21+44
 508 01a0 1360     		str	r3, [r2]
 641:Generated_Source\PSoC4/cyfitter_cfg.c **** 		CY_SET_REG32((void *)(CYREG_UDB_PA2_CFG8), 0x00080000u);
 509              		.loc 1 641 0
 510 01a2 8021     		movs	r1, #128
 511 01a4 0903     		lsls	r1, r1, #12
 512 01a6 254A     		ldr	r2, .L21+48
 513 01a8 1160     		str	r1, [r2]
 642:Generated_Source\PSoC4/cyfitter_cfg.c **** 
 643:Generated_Source\PSoC4/cyfitter_cfg.c **** 		/* UDB_PA_3 Starting address: CYDEV_UDB_PA3_BASE */
 644:Generated_Source\PSoC4/cyfitter_cfg.c **** 		CY_SET_REG32((void *)(CYDEV_UDB_PA3_BASE), 0x00990000u);
 514              		.loc 1 644 0
 515 01aa 254A     		ldr	r2, .L21+52
 516 01ac 1360     		str	r3, [r2]
 645:Generated_Source\PSoC4/cyfitter_cfg.c **** 		CY_SET_REG32((void *)(CYREG_UDB_PA3_CFG8), 0x80000000u);
 517              		.loc 1 645 0
 518 01ae 8022     		movs	r2, #128
 519 01b0 1206     		lsls	r2, r2, #24
 520 01b2 244B     		ldr	r3, .L21+56
 521 01b4 1A60     		str	r2, [r3]
 646:Generated_Source\PSoC4/cyfitter_cfg.c **** 
 647:Generated_Source\PSoC4/cyfitter_cfg.c **** 		/* Enable UDB array and digital routing */
 648:Generated_Source\PSoC4/cyfitter_cfg.c **** 		CY_SET_XTND_REG8((void *)CYREG_UDB_UDBIF_WAIT_CFG, (uint8)((CY_GET_XTND_REG8((void *)CYREG_UDB_UD
 522              		.loc 1 648 0
 523 01b6 2449     		ldr	r1, .L21+60
 524 01b8 0B78     		ldrb	r3, [r1]
 525 01ba 3C22     		movs	r2, #60
 526 01bc 9343     		bics	r3, r2
 527 01be 1422     		movs	r2, #20
 528 01c0 1343     		orrs	r3, r2
 529 01c2 DBB2     		uxtb	r3, r3
 530 01c4 0B70     		strb	r3, [r1]
 649:Generated_Source\PSoC4/cyfitter_cfg.c **** 		CY_SET_XTND_REG8((void *)CYREG_UDB_UDBIF_BANK_CTL, (uint8)(CY_GET_XTND_REG8((void *)CYREG_UDB_UDB
 531              		.loc 1 649 0
ARM GAS  C:\Users\harri\AppData\Local\Temp\ccZ83DjJ.s 			page 22


 532 01c6 214A     		ldr	r2, .L21+64
 533 01c8 1178     		ldrb	r1, [r2]
 534 01ca 1623     		movs	r3, #22
 535 01cc 0B43     		orrs	r3, r1
 536 01ce DBB2     		uxtb	r3, r3
 537 01d0 1370     		strb	r3, [r2]
 538              	.LBE3:
 650:Generated_Source\PSoC4/cyfitter_cfg.c **** 	}
 651:Generated_Source\PSoC4/cyfitter_cfg.c **** 
 652:Generated_Source\PSoC4/cyfitter_cfg.c **** 	/* Perform second pass device configuration. These items must be configured in specific order afte
 653:Generated_Source\PSoC4/cyfitter_cfg.c **** 	/* IOPINS0_0 Starting address: CYDEV_GPIO_PRT0_BASE */
 654:Generated_Source\PSoC4/cyfitter_cfg.c **** 	CY_SET_REG32((void *)(CYREG_GPIO_PRT0_PC), 0x00D80001u);
 539              		.loc 1 654 0
 540 01d2 1F4A     		ldr	r2, .L21+68
 541 01d4 1F4B     		ldr	r3, .L21+72
 542 01d6 1A60     		str	r2, [r3]
 655:Generated_Source\PSoC4/cyfitter_cfg.c **** 
 656:Generated_Source\PSoC4/cyfitter_cfg.c **** 	/* IOPINS0_1 Starting address: CYDEV_GPIO_PRT1_BASE */
 657:Generated_Source\PSoC4/cyfitter_cfg.c **** 	CY_SET_REG32((void *)(CYDEV_GPIO_PRT1_BASE), 0x0000000Au);
 543              		.loc 1 657 0
 544 01d8 0A22     		movs	r2, #10
 545 01da 1F4B     		ldr	r3, .L21+76
 546 01dc 1A60     		str	r2, [r3]
 658:Generated_Source\PSoC4/cyfitter_cfg.c **** 	CY_SET_REG32((void *)(CYREG_GPIO_PRT1_PC), 0x00000C00u);
 547              		.loc 1 658 0
 548 01de C022     		movs	r2, #192
 549 01e0 1201     		lsls	r2, r2, #4
 550 01e2 1E4B     		ldr	r3, .L21+80
 551 01e4 1A60     		str	r2, [r3]
 659:Generated_Source\PSoC4/cyfitter_cfg.c **** 	CY_SET_REG32((void *)(CYREG_GPIO_PRT1_PC2), 0x00000002u);
 552              		.loc 1 659 0
 553 01e6 0223     		movs	r3, #2
 554 01e8 1D4A     		ldr	r2, .L21+84
 555 01ea 1360     		str	r3, [r2]
 660:Generated_Source\PSoC4/cyfitter_cfg.c **** 
 661:Generated_Source\PSoC4/cyfitter_cfg.c **** 	/* IOPINS0_2 Starting address: CYDEV_GPIO_PRT2_BASE */
 662:Generated_Source\PSoC4/cyfitter_cfg.c **** 	CY_SET_REG32((void *)(CYDEV_GPIO_PRT2_BASE), 0x00000002u);
 556              		.loc 1 662 0
 557 01ec 1D4A     		ldr	r2, .L21+88
 558 01ee 1360     		str	r3, [r2]
 663:Generated_Source\PSoC4/cyfitter_cfg.c **** 	CY_SET_REG32((void *)(CYREG_GPIO_PRT2_PC), 0x00C30C32u);
 559              		.loc 1 663 0
 560 01f0 1D4A     		ldr	r2, .L21+92
 561 01f2 1E4B     		ldr	r3, .L21+96
 562 01f4 1A60     		str	r2, [r3]
 664:Generated_Source\PSoC4/cyfitter_cfg.c **** 
 665:Generated_Source\PSoC4/cyfitter_cfg.c **** 	/* IOPINS0_3 Starting address: CYDEV_GPIO_PRT3_BASE */
 666:Generated_Source\PSoC4/cyfitter_cfg.c **** 	CY_SET_REG32((void *)(CYDEV_GPIO_PRT3_BASE), 0x00000080u);
 563              		.loc 1 666 0
 564 01f6 8022     		movs	r2, #128
 565 01f8 1D4B     		ldr	r3, .L21+100
 566 01fa 1A60     		str	r2, [r3]
 667:Generated_Source\PSoC4/cyfitter_cfg.c **** 	CY_SET_REG32((void *)(CYREG_GPIO_PRT3_PC), 0x00C30C30u);
 567              		.loc 1 667 0
 568 01fc 1D4A     		ldr	r2, .L21+104
 569 01fe 1E4B     		ldr	r3, .L21+108
 570 0200 1A60     		str	r2, [r3]
ARM GAS  C:\Users\harri\AppData\Local\Temp\ccZ83DjJ.s 			page 23


 668:Generated_Source\PSoC4/cyfitter_cfg.c **** 
 669:Generated_Source\PSoC4/cyfitter_cfg.c **** 
 670:Generated_Source\PSoC4/cyfitter_cfg.c **** 	/* Setup clocks based on selections from Clock DWR */
 671:Generated_Source\PSoC4/cyfitter_cfg.c **** 	ClockSetup();
 571              		.loc 1 671 0
 572 0202 FFF7FDFE 		bl	ClockSetup
 573              	.LVL35:
 672:Generated_Source\PSoC4/cyfitter_cfg.c **** 
 673:Generated_Source\PSoC4/cyfitter_cfg.c **** 	/* Perform basic analog initialization to defaults */
 674:Generated_Source\PSoC4/cyfitter_cfg.c **** 	AnalogSetDefault();
 574              		.loc 1 674 0
 575 0206 FFF7FEFF 		bl	AnalogSetDefault
 576              	.LVL36:
 675:Generated_Source\PSoC4/cyfitter_cfg.c **** 
 676:Generated_Source\PSoC4/cyfitter_cfg.c **** }
 577              		.loc 1 676 0
 578              		@ sp needed
 579              	.LVL37:
 580 020a 10BD     		pop	{r4, pc}
 581              	.L22:
 582              		.align	2
 583              	.L21:
 584 020c 6CF02E40 		.word	1076818028
 585 0210 00000000 		.word	.LANCHOR0
 586 0214 80010000 		.word	.LANCHOR1
 587 0218 00000240 		.word	1073872896
 588 021c 60300000 		.word	12384
 589 0220 00010240 		.word	1073873152
 590 0224 00020240 		.word	1073873408
 591 0228 00030240 		.word	1073873664
 592 022c 00500F40 		.word	1074745344
 593 0230 10500F40 		.word	1074745360
 594 0234 18500F40 		.word	1074745368
 595 0238 20500F40 		.word	1074745376
 596 023c 28500F40 		.word	1074745384
 597 0240 30500F40 		.word	1074745392
 598 0244 38500F40 		.word	1074745400
 599 0248 01700F40 		.word	1074753537
 600 024c 00700F40 		.word	1074753536
 601 0250 0100D800 		.word	14155777
 602 0254 08000440 		.word	1074003976
 603 0258 00010440 		.word	1074004224
 604 025c 08010440 		.word	1074004232
 605 0260 18010440 		.word	1074004248
 606 0264 00020440 		.word	1074004480
 607 0268 320CC300 		.word	12782642
 608 026c 08020440 		.word	1074004488
 609 0270 00030440 		.word	1074004736
 610 0274 300CC300 		.word	12782640
 611 0278 08030440 		.word	1074004744
 612              		.cfi_endproc
 613              	.LFE9:
 614              		.size	cyfitter_cfg, .-cyfitter_cfg
 615              		.section	.rodata
 616              		.align	2
 617              		.set	.LANCHOR0,. + 0
 618              		.set	.LANCHOR1,. + 384
ARM GAS  C:\Users\harri\AppData\Local\Temp\ccZ83DjJ.s 			page 24


 619              		.type	cfg_memset_list.4922, %object
 620              		.size	cfg_memset_list.4922, 12
 621              	cfg_memset_list.4922:
 622 0000 00300F40 		.word	1074737152
 623 0004 0004     		.short	1024
 624 0006 00400F40 		.4byte	1074741248
 625 000a 0004     		.short	1024
 626              		.type	cy_cfg_data_table.4917, %object
 627              		.size	cy_cfg_data_table.4917, 444
 628              	cy_cfg_data_table.4917:
 629 000c 81       		.byte	-127
 630 000d 0D       		.byte	13
 631 000e 82       		.byte	-126
 632 000f 0D       		.byte	13
 633 0010 83       		.byte	-125
 634 0011 0D       		.byte	13
 635 0012 30       		.byte	48
 636 0013 01       		.byte	1
 637 0014 3E       		.byte	62
 638 0015 01       		.byte	1
 639 0016 58       		.byte	88
 640 0017 04       		.byte	4
 641 0018 5F       		.byte	95
 642 0019 01       		.byte	1
 643 001a 8F       		.byte	-113
 644 001b 01       		.byte	1
 645 001c 94       		.byte	-108
 646 001d 01       		.byte	1
 647 001e 9A       		.byte	-102
 648 001f 07       		.byte	7
 649 0020 9E       		.byte	-98
 650 0021 04       		.byte	4
 651 0022 A3       		.byte	-93
 652 0023 01       		.byte	1
 653 0024 AE       		.byte	-82
 654 0025 08       		.byte	8
 655 0026 B0       		.byte	-80
 656 0027 04       		.byte	4
 657 0028 B2       		.byte	-78
 658 0029 02       		.byte	2
 659 002a B4       		.byte	-76
 660 002b 01       		.byte	1
 661 002c B5       		.byte	-75
 662 002d 01       		.byte	1
 663 002e B6       		.byte	-74
 664 002f 08       		.byte	8
 665 0030 BF       		.byte	-65
 666 0031 10       		.byte	16
 667 0032 C0       		.byte	-64
 668 0033 10       		.byte	16
 669 0034 C1       		.byte	-63
 670 0035 05       		.byte	5
 671 0036 C5       		.byte	-59
 672 0037 D1       		.byte	-47
 673 0038 C6       		.byte	-58
 674 0039 02       		.byte	2
 675 003a C8       		.byte	-56
ARM GAS  C:\Users\harri\AppData\Local\Temp\ccZ83DjJ.s 			page 25


 676 003b 07       		.byte	7
 677 003c C9       		.byte	-55
 678 003d FF       		.byte	-1
 679 003e CA       		.byte	-54
 680 003f FF       		.byte	-1
 681 0040 CB       		.byte	-53
 682 0041 FF       		.byte	-1
 683 0042 CD       		.byte	-51
 684 0043 A0       		.byte	-96
 685 0044 CF       		.byte	-49
 686 0045 04       		.byte	4
 687 0046 D0       		.byte	-48
 688 0047 18       		.byte	24
 689 0048 D2       		.byte	-46
 690 0049 80       		.byte	-128
 691 004a D4       		.byte	-44
 692 004b 05       		.byte	5
 693 004c D8       		.byte	-40
 694 004d 04       		.byte	4
 695 004e D9       		.byte	-39
 696 004f 04       		.byte	4
 697 0050 DA       		.byte	-38
 698 0051 04       		.byte	4
 699 0052 DB       		.byte	-37
 700 0053 04       		.byte	4
 701 0054 DC       		.byte	-36
 702 0055 03       		.byte	3
 703 0056 DD       		.byte	-35
 704 0057 33       		.byte	51
 705 0058 DF       		.byte	-33
 706 0059 01       		.byte	1
 707 005a E0       		.byte	-32
 708 005b 40       		.byte	64
 709 005c E2       		.byte	-30
 710 005d C0       		.byte	-64
 711 005e E4       		.byte	-28
 712 005f 40       		.byte	64
 713 0060 E5       		.byte	-27
 714 0061 40       		.byte	64
 715 0062 E6       		.byte	-26
 716 0063 C0       		.byte	-64
 717 0064 E8       		.byte	-24
 718 0065 C0       		.byte	-64
 719 0066 EA       		.byte	-22
 720 0067 C0       		.byte	-64
 721 0068 EC       		.byte	-20
 722 0069 C0       		.byte	-64
 723 006a EE       		.byte	-18
 724 006b C0       		.byte	-64
 725 006c 0D       		.byte	13
 726 006d 80       		.byte	-128
 727 006e 0E       		.byte	14
 728 006f 20       		.byte	32
 729 0070 0F       		.byte	15
 730 0071 08       		.byte	8
 731 0072 17       		.byte	23
 732 0073 80       		.byte	-128
ARM GAS  C:\Users\harri\AppData\Local\Temp\ccZ83DjJ.s 			page 26


 733 0074 1A       		.byte	26
 734 0075 80       		.byte	-128
 735 0076 1D       		.byte	29
 736 0077 80       		.byte	-128
 737 0078 1E       		.byte	30
 738 0079 20       		.byte	32
 739 007a 1F       		.byte	31
 740 007b 91       		.byte	-111
 741 007c 27       		.byte	39
 742 007d 08       		.byte	8
 743 007e 2F       		.byte	47
 744 007f 80       		.byte	-128
 745 0080 3F       		.byte	63
 746 0081 80       		.byte	-128
 747 0082 45       		.byte	69
 748 0083 80       		.byte	-128
 749 0084 4F       		.byte	79
 750 0085 89       		.byte	-119
 751 0086 57       		.byte	87
 752 0087 40       		.byte	64
 753 0088 5C       		.byte	92
 754 0089 80       		.byte	-128
 755 008a 5F       		.byte	95
 756 008b 09       		.byte	9
 757 008c 77       		.byte	119
 758 008d 80       		.byte	-128
 759 008e C2       		.byte	-62
 760 008f E0       		.byte	-32
 761 0090 C4       		.byte	-60
 762 0091 80       		.byte	-128
 763 0092 CA       		.byte	-54
 764 0093 80       		.byte	-128
 765 0094 CE       		.byte	-50
 766 0095 10       		.byte	16
 767 0096 D0       		.byte	-48
 768 0097 10       		.byte	16
 769 0098 D2       		.byte	-46
 770 0099 10       		.byte	16
 771 009a D6       		.byte	-42
 772 009b D0       		.byte	-48
 773 009c 0A       		.byte	10
 774 009d 01       		.byte	1
 775 009e 0F       		.byte	15
 776 009f 01       		.byte	1
 777 00a0 14       		.byte	20
 778 00a1 04       		.byte	4
 779 00a2 1A       		.byte	26
 780 00a3 07       		.byte	7
 781 00a4 27       		.byte	39
 782 00a5 01       		.byte	1
 783 00a6 2E       		.byte	46
 784 00a7 08       		.byte	8
 785 00a8 30       		.byte	48
 786 00a9 04       		.byte	4
 787 00aa 32       		.byte	50
 788 00ab 02       		.byte	2
 789 00ac 34       		.byte	52
ARM GAS  C:\Users\harri\AppData\Local\Temp\ccZ83DjJ.s 			page 27


 790 00ad 08       		.byte	8
 791 00ae 35       		.byte	53
 792 00af 01       		.byte	1
 793 00b0 36       		.byte	54
 794 00b1 01       		.byte	1
 795 00b2 3F       		.byte	63
 796 00b3 10       		.byte	16
 797 00b4 40       		.byte	64
 798 00b5 20       		.byte	32
 799 00b6 41       		.byte	65
 800 00b7 05       		.byte	5
 801 00b8 45       		.byte	69
 802 00b9 D1       		.byte	-47
 803 00ba 46       		.byte	70
 804 00bb 02       		.byte	2
 805 00bc 48       		.byte	72
 806 00bd 07       		.byte	7
 807 00be 49       		.byte	73
 808 00bf FF       		.byte	-1
 809 00c0 4A       		.byte	74
 810 00c1 FF       		.byte	-1
 811 00c2 4B       		.byte	75
 812 00c3 FF       		.byte	-1
 813 00c4 4D       		.byte	77
 814 00c5 A0       		.byte	-96
 815 00c6 4F       		.byte	79
 816 00c7 04       		.byte	4
 817 00c8 50       		.byte	80
 818 00c9 18       		.byte	24
 819 00ca 52       		.byte	82
 820 00cb 80       		.byte	-128
 821 00cc 54       		.byte	84
 822 00cd 05       		.byte	5
 823 00ce 58       		.byte	88
 824 00cf 04       		.byte	4
 825 00d0 59       		.byte	89
 826 00d1 04       		.byte	4
 827 00d2 5A       		.byte	90
 828 00d3 04       		.byte	4
 829 00d4 5B       		.byte	91
 830 00d5 04       		.byte	4
 831 00d6 5C       		.byte	92
 832 00d7 02       		.byte	2
 833 00d8 5D       		.byte	93
 834 00d9 22       		.byte	34
 835 00da 5F       		.byte	95
 836 00db 01       		.byte	1
 837 00dc 60       		.byte	96
 838 00dd 40       		.byte	64
 839 00de 62       		.byte	98
 840 00df C0       		.byte	-64
 841 00e0 64       		.byte	100
 842 00e1 40       		.byte	64
 843 00e2 65       		.byte	101
 844 00e3 40       		.byte	64
 845 00e4 66       		.byte	102
 846 00e5 C0       		.byte	-64
ARM GAS  C:\Users\harri\AppData\Local\Temp\ccZ83DjJ.s 			page 28


 847 00e6 68       		.byte	104
 848 00e7 C0       		.byte	-64
 849 00e8 6A       		.byte	106
 850 00e9 C0       		.byte	-64
 851 00ea 6C       		.byte	108
 852 00eb C0       		.byte	-64
 853 00ec 6E       		.byte	110
 854 00ed C0       		.byte	-64
 855 00ee 86       		.byte	-122
 856 00ef 01       		.byte	1
 857 00f0 87       		.byte	-121
 858 00f1 01       		.byte	1
 859 00f2 92       		.byte	-110
 860 00f3 08       		.byte	8
 861 00f4 93       		.byte	-109
 862 00f5 01       		.byte	1
 863 00f6 9C       		.byte	-100
 864 00f7 04       		.byte	4
 865 00f8 A6       		.byte	-90
 866 00f9 07       		.byte	7
 867 00fa B0       		.byte	-80
 868 00fb 04       		.byte	4
 869 00fc B2       		.byte	-78
 870 00fd 01       		.byte	1
 871 00fe B3       		.byte	-77
 872 00ff 01       		.byte	1
 873 0100 B4       		.byte	-76
 874 0101 08       		.byte	8
 875 0102 B6       		.byte	-74
 876 0103 02       		.byte	2
 877 0104 BF       		.byte	-65
 878 0105 04       		.byte	4
 879 0106 C0       		.byte	-64
 880 0107 20       		.byte	32
 881 0108 C1       		.byte	-63
 882 0109 05       		.byte	5
 883 010a C5       		.byte	-59
 884 010b D1       		.byte	-47
 885 010c C7       		.byte	-57
 886 010d 20       		.byte	32
 887 010e C8       		.byte	-56
 888 010f 23       		.byte	35
 889 0110 C9       		.byte	-55
 890 0111 FF       		.byte	-1
 891 0112 CA       		.byte	-54
 892 0113 FF       		.byte	-1
 893 0114 CB       		.byte	-53
 894 0115 FF       		.byte	-1
 895 0116 CD       		.byte	-51
 896 0117 A0       		.byte	-96
 897 0118 CF       		.byte	-49
 898 0119 04       		.byte	4
 899 011a D0       		.byte	-48
 900 011b 18       		.byte	24
 901 011c D2       		.byte	-46
 902 011d 80       		.byte	-128
 903 011e D4       		.byte	-44
ARM GAS  C:\Users\harri\AppData\Local\Temp\ccZ83DjJ.s 			page 29


 904 011f 05       		.byte	5
 905 0120 D8       		.byte	-40
 906 0121 04       		.byte	4
 907 0122 D9       		.byte	-39
 908 0123 04       		.byte	4
 909 0124 DA       		.byte	-38
 910 0125 04       		.byte	4
 911 0126 DB       		.byte	-37
 912 0127 04       		.byte	4
 913 0128 DC       		.byte	-36
 914 0129 01       		.byte	1
 915 012a DD       		.byte	-35
 916 012b 11       		.byte	17
 917 012c DF       		.byte	-33
 918 012d 01       		.byte	1
 919 012e E0       		.byte	-32
 920 012f 40       		.byte	64
 921 0130 E2       		.byte	-30
 922 0131 C0       		.byte	-64
 923 0132 E4       		.byte	-28
 924 0133 40       		.byte	64
 925 0134 E5       		.byte	-27
 926 0135 40       		.byte	64
 927 0136 E6       		.byte	-26
 928 0137 C0       		.byte	-64
 929 0138 E8       		.byte	-24
 930 0139 C0       		.byte	-64
 931 013a EA       		.byte	-22
 932 013b C0       		.byte	-64
 933 013c EC       		.byte	-20
 934 013d C0       		.byte	-64
 935 013e EE       		.byte	-18
 936 013f C0       		.byte	-64
 937 0140 00       		.byte	0
 938 0141 04       		.byte	4
 939 0142 05       		.byte	5
 940 0143 10       		.byte	16
 941 0144 09       		.byte	9
 942 0145 02       		.byte	2
 943 0146 0A       		.byte	10
 944 0147 01       		.byte	1
 945 0148 0E       		.byte	14
 946 0149 10       		.byte	16
 947 014a 0F       		.byte	15
 948 014b 08       		.byte	8
 949 014c 10       		.byte	16
 950 014d 20       		.byte	32
 951 014e 17       		.byte	23
 952 014f 80       		.byte	-128
 953 0150 18       		.byte	24
 954 0151 04       		.byte	4
 955 0152 19       		.byte	25
 956 0153 04       		.byte	4
 957 0154 1A       		.byte	26
 958 0155 41       		.byte	65
 959 0156 1D       		.byte	29
 960 0157 30       		.byte	48
ARM GAS  C:\Users\harri\AppData\Local\Temp\ccZ83DjJ.s 			page 30


 961 0158 1E       		.byte	30
 962 0159 90       		.byte	-112
 963 015a 1F       		.byte	31
 964 015b 90       		.byte	-112
 965 015c 22       		.byte	34
 966 015d 04       		.byte	4
 967 015e 27       		.byte	39
 968 015f 08       		.byte	8
 969 0160 2F       		.byte	47
 970 0161 10       		.byte	16
 971 0162 30       		.byte	48
 972 0163 02       		.byte	2
 973 0164 38       		.byte	56
 974 0165 04       		.byte	4
 975 0166 3F       		.byte	63
 976 0167 80       		.byte	-128
 977 0168 40       		.byte	64
 978 0169 04       		.byte	4
 979 016a 45       		.byte	69
 980 016b 20       		.byte	32
 981 016c 48       		.byte	72
 982 016d 22       		.byte	34
 983 016e 49       		.byte	73
 984 016f 01       		.byte	1
 985 0170 4F       		.byte	79
 986 0171 89       		.byte	-119
 987 0172 50       		.byte	80
 988 0173 02       		.byte	2
 989 0174 57       		.byte	87
 990 0175 40       		.byte	64
 991 0176 59       		.byte	89
 992 0177 01       		.byte	1
 993 0178 5A       		.byte	90
 994 0179 48       		.byte	72
 995 017a 5E       		.byte	94
 996 017b 80       		.byte	-128
 997 017c 5F       		.byte	95
 998 017d 09       		.byte	9
 999 017e 71       		.byte	113
 1000 017f 02       		.byte	2
 1001 0180 77       		.byte	119
 1002 0181 80       		.byte	-128
 1003 0182 87       		.byte	-121
 1004 0183 80       		.byte	-128
 1005 0184 8D       		.byte	-115
 1006 0185 04       		.byte	4
 1007 0186 8F       		.byte	-113
 1008 0187 01       		.byte	1
 1009 0188 93       		.byte	-109
 1010 0189 02       		.byte	2
 1011 018a AA       		.byte	-86
 1012 018b 40       		.byte	64
 1013 018c AC       		.byte	-84
 1014 018d 80       		.byte	-128
 1015 018e AF       		.byte	-81
 1016 018f 10       		.byte	16
 1017 0190 C0       		.byte	-64
ARM GAS  C:\Users\harri\AppData\Local\Temp\ccZ83DjJ.s 			page 31


 1018 0191 44       		.byte	68
 1019 0192 C2       		.byte	-62
 1020 0193 69       		.byte	105
 1021 0194 C4       		.byte	-60
 1022 0195 84       		.byte	-124
 1023 0196 CA       		.byte	-54
 1024 0197 40       		.byte	64
 1025 0198 CC       		.byte	-52
 1026 0199 01       		.byte	1
 1027 019a CE       		.byte	-50
 1028 019b 12       		.byte	18
 1029 019c D0       		.byte	-48
 1030 019d 24       		.byte	36
 1031 019e D2       		.byte	-46
 1032 019f 18       		.byte	24
 1033 01a0 D6       		.byte	-42
 1034 01a1 DB       		.byte	-37
 1035 01a2 57       		.byte	87
 1036 01a3 01       		.byte	1
 1037 01a4 5B       		.byte	91
 1038 01a5 40       		.byte	64
 1039 01a6 87       		.byte	-121
 1040 01a7 01       		.byte	1
 1041 01a8 9B       		.byte	-101
 1042 01a9 40       		.byte	64
 1043 01aa AB       		.byte	-85
 1044 01ab 40       		.byte	64
 1045 01ac D4       		.byte	-44
 1046 01ad 80       		.byte	-128
 1047 01ae D6       		.byte	-42
 1048 01af 20       		.byte	32
 1049 01b0 E6       		.byte	-26
 1050 01b1 10       		.byte	16
 1051 01b2 EE       		.byte	-18
 1052 01b3 80       		.byte	-128
 1053 01b4 5A       		.byte	90
 1054 01b5 80       		.byte	-128
 1055 01b6 D4       		.byte	-44
 1056 01b7 01       		.byte	1
 1057 01b8 63       		.byte	99
 1058 01b9 08       		.byte	8
 1059 01ba 8E       		.byte	-114
 1060 01bb 40       		.byte	64
 1061 01bc 8F       		.byte	-113
 1062 01bd 04       		.byte	4
 1063 01be 96       		.byte	-106
 1064 01bf 80       		.byte	-128
 1065 01c0 D8       		.byte	-40
 1066 01c1 02       		.byte	2
 1067 01c2 E0       		.byte	-32
 1068 01c3 0A       		.byte	10
 1069 01c4 01       		.byte	1
 1070 01c5 0E       		.byte	14
 1071 01c6 10       		.byte	16
 1072 01c7 0E       		.byte	14
 1073              		.type	cy_cfg_addr_table.4916, %object
 1074              		.size	cy_cfg_addr_table.4916, 36
ARM GAS  C:\Users\harri\AppData\Local\Temp\ccZ83DjJ.s 			page 32


 1075              	cy_cfg_addr_table.4916:
 1076 01c8 03000F40 		.word	1074724867
 1077 01cc 2D300F40 		.word	1074737197
 1078 01d0 18310F40 		.word	1074737432
 1079 01d4 52320F40 		.word	1074737746
 1080 01d8 31330F40 		.word	1074737969
 1081 01dc 09410F40 		.word	1074741513
 1082 01e0 02420F40 		.word	1074741762
 1083 01e4 06430F40 		.word	1074742022
 1084 01e8 02600F40 		.word	1074749442
 1085              		.text
 1086              	.Letext0:
 1087              		.file 2 "c:\\program files (x86)\\cypress\\psoc creator\\4.4\\psoc creator\\import\\gnu\\arm\\5.4.
 1088              		.file 3 "Generated_Source\\PSoC4\\cytypes.h"
 1089              		.file 4 "Generated_Source\\PSoC4\\CyLFClk.h"
 1090              		.file 5 "Generated_Source\\PSoC4\\CyLib.h"