ARM GAS  C:\Users\harri\AppData\Local\Temp\ccTV1tqz.s 			page 1


   1              		.syntax unified
   2              		.cpu cortex-m0
   3              		.fpu softvfp
   4              		.eabi_attribute 20, 1
   5              		.eabi_attribute 21, 1
   6              		.eabi_attribute 23, 3
   7              		.eabi_attribute 24, 1
   8              		.eabi_attribute 25, 1
   9              		.eabi_attribute 26, 1
  10              		.eabi_attribute 30, 1
  11              		.eabi_attribute 34, 0
  12              		.eabi_attribute 18, 4
  13              		.thumb
  14              		.syntax unified
  15              		.file	"main.c"
  16              		.text
  17              	.Ltext0:
  18              		.cfi_sections	.debug_frame
  19              		.section	.text.main,"ax",%progbits
  20              		.align	2
  21              		.global	main
  22              		.code	16
  23              		.thumb_func
  24              		.type	main, %function
  25              	main:
  26              	.LFB36:
  27              		.file 1 "main.c"
   1:main.c        **** /* ========================================
   2:main.c        ****  *
   3:main.c        ****  * Copyright YOUR COMPANY, THE YEAR
   4:main.c        ****  * All Rights Reserved
   5:main.c        ****  * UNPUBLISHED, LICENSED SOFTWARE.
   6:main.c        ****  *
   7:main.c        ****  * CONFIDENTIAL AND PROPRIETARY INFORMATION
   8:main.c        ****  * WHICH IS THE PROPERTY OF your company.
   9:main.c        ****  *
  10:main.c        ****  * ========================================
  11:main.c        **** */
  12:main.c        **** #include "project.h"
  13:main.c        **** #include "stdio.h" 
  14:main.c        **** 
  15:main.c        **** int main(void)
  16:main.c        **** {
  28              		.loc 1 16 0
  29              		.cfi_startproc
  30              		@ args = 0, pretend = 0, frame = 0
  31              		@ frame_needed = 0, uses_anonymous_args = 0
  32 0000 70B5     		push	{r4, r5, r6, lr}
  33              		.cfi_def_cfa_offset 16
  34              		.cfi_offset 4, -16
  35              		.cfi_offset 5, -12
  36              		.cfi_offset 6, -8
  37              		.cfi_offset 14, -4
  17:main.c        ****     CyGlobalIntEnable;
  38              		.loc 1 17 0
  39              		.syntax divided
  40              	@ 17 "main.c" 1
ARM GAS  C:\Users\harri\AppData\Local\Temp\ccTV1tqz.s 			page 2


  41 0002 62B6     		CPSIE   i
  42              	@ 0 "" 2
  18:main.c        ****     PWM_1_Start();
  43              		.loc 1 18 0
  44              		.thumb
  45              		.syntax unified
  46 0004 FFF7FEFF 		bl	PWM_1_Start
  47              	.LVL0:
  19:main.c        ****     PWM_2_Start();
  48              		.loc 1 19 0
  49 0008 FFF7FEFF 		bl	PWM_2_Start
  50              	.LVL1:
  20:main.c        ****     PWM_3_Start();
  51              		.loc 1 20 0
  52 000c FFF7FEFF 		bl	PWM_3_Start
  53              	.LVL2:
  21:main.c        **** 
  22:main.c        ****     int ii = 0;
  23:main.c        ****     uint16 ADCResult = ADC_SAR_Seq_1_GetResult16(0);
  54              		.loc 1 23 0
  55 0010 0020     		movs	r0, #0
  56 0012 FFF7FEFF 		bl	ADC_SAR_Seq_1_GetResult16
  57              	.LVL3:
  58 0016 86B2     		uxth	r6, r0
  59              	.LVL4:
  24:main.c        ****     
  25:main.c        ****     ADC_SAR_Seq_1_Enable();
  60              		.loc 1 25 0
  61 0018 FFF7FEFF 		bl	ADC_SAR_Seq_1_Enable
  62              	.LVL5:
  26:main.c        ****     ADC_SAR_Seq_1_Start();
  63              		.loc 1 26 0
  64 001c FFF7FEFF 		bl	ADC_SAR_Seq_1_Start
  65              	.LVL6:
  27:main.c        ****     ADC_SAR_Seq_1_StartConvert();
  66              		.loc 1 27 0
  67 0020 FFF7FEFF 		bl	ADC_SAR_Seq_1_StartConvert
  68              	.LVL7:
  28:main.c        ****     ADC_SAR_Seq_1_IsEndConversion(ADC_SAR_Seq_1_WAIT_FOR_RESULT);
  69              		.loc 1 28 0
  70 0024 0220     		movs	r0, #2
  71 0026 FFF7FEFF 		bl	ADC_SAR_Seq_1_IsEndConversion
  72              	.LVL8:
  73              	.L13:
  29:main.c        ****     
  30:main.c        **** 
  31:main.c        ****     /*Place your initialization/startup code here (e.g. MyInst_Start()) */
  32:main.c        ****     
  33:main.c        ****    
  34:main.c        **** 
  35:main.c        ****     for(;;){
  36:main.c        ****         /* Place your application code here. */
  37:main.c        ****         CyDelay(10);
  74              		.loc 1 37 0
  75 002a 0A20     		movs	r0, #10
  76 002c FFF7FEFF 		bl	CyDelay
  77              	.LVL9:
ARM GAS  C:\Users\harri\AppData\Local\Temp\ccTV1tqz.s 			page 3


  38:main.c        ****         
  39:main.c        ****         if (ADCResult > 100 && Switch1_Read() == 0){
  78              		.loc 1 39 0
  79 0030 642E     		cmp	r6, #100
  80 0032 1DD9     		bls	.L2
  81              		.loc 1 39 0 is_stmt 0 discriminator 1
  82 0034 FFF7FEFF 		bl	Switch1_Read
  83              	.LVL10:
  84 0038 0028     		cmp	r0, #0
  85 003a 19D1     		bne	.L2
  40:main.c        ****             Speaker_Write(1);
  86              		.loc 1 40 0 is_stmt 1
  87 003c 0130     		adds	r0, r0, #1
  88 003e FFF7FEFF 		bl	Speaker_Write
  89              	.LVL11:
  41:main.c        ****             Red1_Write(1); 
  90              		.loc 1 41 0
  91 0042 0120     		movs	r0, #1
  92 0044 FFF7FEFF 		bl	Red1_Write
  93              	.LVL12:
  42:main.c        ****             Blue1_Write(0);    /* Red */
  94              		.loc 1 42 0
  95 0048 0020     		movs	r0, #0
  96 004a FFF7FEFF 		bl	Blue1_Write
  97              	.LVL13:
  43:main.c        ****             Green1_Write(1);  
  98              		.loc 1 43 0
  99 004e 0120     		movs	r0, #1
 100 0050 FFF7FEFF 		bl	Green1_Write
 101              	.LVL14:
  44:main.c        **** 
  45:main.c        ****             Red2_Write(0);
 102              		.loc 1 45 0
 103 0054 0020     		movs	r0, #0
 104 0056 FFF7FEFF 		bl	Red2_Write
 105              	.LVL15:
  46:main.c        ****             Blue2_Write(0);   
 106              		.loc 1 46 0
 107 005a 0020     		movs	r0, #0
 108 005c FFF7FEFF 		bl	Blue2_Write
 109              	.LVL16:
  47:main.c        ****             Green2_Write(0);
 110              		.loc 1 47 0
 111 0060 0020     		movs	r0, #0
 112 0062 FFF7FEFF 		bl	Green2_Write
 113              	.LVL17:
  48:main.c        ****             CyDelay(500);
 114              		.loc 1 48 0
 115 0066 FA20     		movs	r0, #250
 116 0068 4000     		lsls	r0, r0, #1
 117 006a FFF7FEFF 		bl	CyDelay
 118              	.LVL18:
 119 006e 11E0     		b	.L3
 120              	.L2:
  49:main.c        ****         }else{
  50:main.c        ****             Red1_Write(0); 
 121              		.loc 1 50 0
ARM GAS  C:\Users\harri\AppData\Local\Temp\ccTV1tqz.s 			page 4


 122 0070 0020     		movs	r0, #0
 123 0072 FFF7FEFF 		bl	Red1_Write
 124              	.LVL19:
  51:main.c        ****             Blue1_Write(0);    /* Red */
 125              		.loc 1 51 0
 126 0076 0020     		movs	r0, #0
 127 0078 FFF7FEFF 		bl	Blue1_Write
 128              	.LVL20:
  52:main.c        ****             Green1_Write(1);  
 129              		.loc 1 52 0
 130 007c 0120     		movs	r0, #1
 131 007e FFF7FEFF 		bl	Green1_Write
 132              	.LVL21:
  53:main.c        **** 
  54:main.c        ****             Red2_Write(0);
 133              		.loc 1 54 0
 134 0082 0020     		movs	r0, #0
 135 0084 FFF7FEFF 		bl	Red2_Write
 136              	.LVL22:
  55:main.c        ****             Blue2_Write(0);   
 137              		.loc 1 55 0
 138 0088 0020     		movs	r0, #0
 139 008a FFF7FEFF 		bl	Blue2_Write
 140              	.LVL23:
  56:main.c        ****             Green2_Write(1); 
 141              		.loc 1 56 0
 142 008e 0120     		movs	r0, #1
 143 0090 FFF7FEFF 		bl	Green2_Write
 144              	.LVL24:
 145              	.L3:
  57:main.c        ****         }
  58:main.c        ****         
  59:main.c        ****         if (Switch1_Read()==0){
 146              		.loc 1 59 0
 147 0094 FFF7FEFF 		bl	Switch1_Read
 148              	.LVL25:
 149 0098 0028     		cmp	r0, #0
 150 009a 11D1     		bne	.L4
  60:main.c        ****             Red1_Write(1); 
 151              		.loc 1 60 0
 152 009c 0130     		adds	r0, r0, #1
 153 009e FFF7FEFF 		bl	Red1_Write
 154              	.LVL26:
  61:main.c        ****             Blue1_Write(1);    /* Red */
 155              		.loc 1 61 0
 156 00a2 0120     		movs	r0, #1
 157 00a4 FFF7FEFF 		bl	Blue1_Write
 158              	.LVL27:
  62:main.c        ****             Green1_Write(0);  
 159              		.loc 1 62 0
 160 00a8 0020     		movs	r0, #0
 161 00aa FFF7FEFF 		bl	Green1_Write
 162              	.LVL28:
  63:main.c        **** 
  64:main.c        ****             Red2_Write(0);
 163              		.loc 1 64 0
 164 00ae 0020     		movs	r0, #0
ARM GAS  C:\Users\harri\AppData\Local\Temp\ccTV1tqz.s 			page 5


 165 00b0 FFF7FEFF 		bl	Red2_Write
 166              	.LVL29:
  65:main.c        ****             Blue2_Write(0);   
 167              		.loc 1 65 0
 168 00b4 0020     		movs	r0, #0
 169 00b6 FFF7FEFF 		bl	Blue2_Write
 170              	.LVL30:
  66:main.c        ****             Green2_Write(1);     /* Green */
 171              		.loc 1 66 0
 172 00ba 0120     		movs	r0, #1
 173 00bc FFF7FEFF 		bl	Green2_Write
 174              	.LVL31:
 175              	.L4:
  16:main.c        ****     CyGlobalIntEnable;
 176              		.loc 1 16 0 discriminator 1
 177 00c0 0024     		movs	r4, #0
 178 00c2 0AE0     		b	.L5
 179              	.LVL32:
 180              	.L6:
  67:main.c        ****         }
  68:main.c        ****         for(ii = 0; ii < 255; ii++){        /* Flashing */
  69:main.c        ****             PWM_2_WriteCompare(ii);
 181              		.loc 1 69 0 discriminator 3
 182 00c4 E5B2     		uxtb	r5, r4
 183 00c6 2800     		movs	r0, r5
 184 00c8 FFF7FEFF 		bl	PWM_2_WriteCompare
 185              	.LVL33:
  70:main.c        ****             PWM_1_WriteCompare(ii);
 186              		.loc 1 70 0 discriminator 3
 187 00cc 2800     		movs	r0, r5
 188 00ce FFF7FEFF 		bl	PWM_1_WriteCompare
 189              	.LVL34:
  71:main.c        ****             CyDelay(5);
 190              		.loc 1 71 0 discriminator 3
 191 00d2 0520     		movs	r0, #5
 192 00d4 FFF7FEFF 		bl	CyDelay
 193              	.LVL35:
  68:main.c        ****             PWM_2_WriteCompare(ii);
 194              		.loc 1 68 0 discriminator 3
 195 00d8 0134     		adds	r4, r4, #1
 196              	.LVL36:
 197              	.L5:
  68:main.c        ****             PWM_2_WriteCompare(ii);
 198              		.loc 1 68 0 is_stmt 0 discriminator 1
 199 00da FE2C     		cmp	r4, #254
 200 00dc F2DD     		ble	.L6
 201 00de FF24     		movs	r4, #255
 202              	.LVL37:
 203 00e0 0AE0     		b	.L7
 204              	.LVL38:
 205              	.L8:
  72:main.c        ****         }
  73:main.c        ****         for(ii = 255; ii > 0; ii--){               /* Flashing */
  74:main.c        ****             PWM_2_WriteCompare(ii);
 206              		.loc 1 74 0 is_stmt 1 discriminator 3
 207 00e2 E5B2     		uxtb	r5, r4
 208 00e4 2800     		movs	r0, r5
ARM GAS  C:\Users\harri\AppData\Local\Temp\ccTV1tqz.s 			page 6


 209 00e6 FFF7FEFF 		bl	PWM_2_WriteCompare
 210              	.LVL39:
  75:main.c        ****             PWM_1_WriteCompare(ii);
 211              		.loc 1 75 0 discriminator 3
 212 00ea 2800     		movs	r0, r5
 213 00ec FFF7FEFF 		bl	PWM_1_WriteCompare
 214              	.LVL40:
  76:main.c        ****             CyDelay(5);
 215              		.loc 1 76 0 discriminator 3
 216 00f0 0520     		movs	r0, #5
 217 00f2 FFF7FEFF 		bl	CyDelay
 218              	.LVL41:
  73:main.c        ****             PWM_2_WriteCompare(ii);
 219              		.loc 1 73 0 discriminator 3
 220 00f6 013C     		subs	r4, r4, #1
 221              	.LVL42:
 222              	.L7:
  73:main.c        ****             PWM_2_WriteCompare(ii);
 223              		.loc 1 73 0 is_stmt 0 discriminator 1
 224 00f8 002C     		cmp	r4, #0
 225 00fa F2DC     		bgt	.L8
 226 00fc 0024     		movs	r4, #0
 227              	.LVL43:
 228 00fe 0AE0     		b	.L9
 229              	.LVL44:
 230              	.L10:
  77:main.c        ****         }
  78:main.c        **** 
  79:main.c        ****         for(ii = 0; ii < 255; ii++){            /* Flashing */
  80:main.c        ****             PWM_2_WriteCompare(ii);
 231              		.loc 1 80 0 is_stmt 1 discriminator 3
 232 0100 E5B2     		uxtb	r5, r4
 233 0102 2800     		movs	r0, r5
 234 0104 FFF7FEFF 		bl	PWM_2_WriteCompare
 235              	.LVL45:
  81:main.c        ****             PWM_1_WriteCompare(ii);
 236              		.loc 1 81 0 discriminator 3
 237 0108 2800     		movs	r0, r5
 238 010a FFF7FEFF 		bl	PWM_1_WriteCompare
 239              	.LVL46:
  82:main.c        ****             CyDelay(5);
 240              		.loc 1 82 0 discriminator 3
 241 010e 0520     		movs	r0, #5
 242 0110 FFF7FEFF 		bl	CyDelay
 243              	.LVL47:
  79:main.c        ****             PWM_2_WriteCompare(ii);
 244              		.loc 1 79 0 discriminator 3
 245 0114 0134     		adds	r4, r4, #1
 246              	.LVL48:
 247              	.L9:
  79:main.c        ****             PWM_2_WriteCompare(ii);
 248              		.loc 1 79 0 is_stmt 0 discriminator 1
 249 0116 FE2C     		cmp	r4, #254
 250 0118 F2DD     		ble	.L10
 251 011a FF24     		movs	r4, #255
 252              	.LVL49:
 253 011c 0AE0     		b	.L11
ARM GAS  C:\Users\harri\AppData\Local\Temp\ccTV1tqz.s 			page 7


 254              	.LVL50:
 255              	.L12:
  83:main.c        ****         }
  84:main.c        ****         for(ii = 255; ii > 0; ii--){          /* Flashing */
  85:main.c        ****             PWM_2_WriteCompare(ii);
 256              		.loc 1 85 0 is_stmt 1 discriminator 3
 257 011e E5B2     		uxtb	r5, r4
 258 0120 2800     		movs	r0, r5
 259 0122 FFF7FEFF 		bl	PWM_2_WriteCompare
 260              	.LVL51:
  86:main.c        ****             PWM_1_WriteCompare(ii);
 261              		.loc 1 86 0 discriminator 3
 262 0126 2800     		movs	r0, r5
 263 0128 FFF7FEFF 		bl	PWM_1_WriteCompare
 264              	.LVL52:
  87:main.c        ****             CyDelay(5);
 265              		.loc 1 87 0 discriminator 3
 266 012c 0520     		movs	r0, #5
 267 012e FFF7FEFF 		bl	CyDelay
 268              	.LVL53:
  84:main.c        ****             PWM_2_WriteCompare(ii);
 269              		.loc 1 84 0 discriminator 3
 270 0132 013C     		subs	r4, r4, #1
 271              	.LVL54:
 272              	.L11:
  84:main.c        ****             PWM_2_WriteCompare(ii);
 273              		.loc 1 84 0 is_stmt 0 discriminator 1
 274 0134 002C     		cmp	r4, #0
 275 0136 F2DC     		bgt	.L12
  88:main.c        ****         }
  89:main.c        ****         PWM_3_WriteCompare(250);
 276              		.loc 1 89 0 is_stmt 1
 277 0138 FA20     		movs	r0, #250
 278 013a FFF7FEFF 		bl	PWM_3_WriteCompare
 279              	.LVL55:
  90:main.c        ****         }
 280              		.loc 1 90 0
 281 013e 74E7     		b	.L13
 282              		.cfi_endproc
 283              	.LFE36:
 284              		.size	main, .-main
 285              		.text
 286              	.Letext0:
 287              		.file 2 "Generated_Source\\PSoC4/PWM_1.h"
 288              		.file 3 "Generated_Source\\PSoC4/PWM_2.h"
 289              		.file 4 "Generated_Source\\PSoC4/PWM_3.h"
 290              		.file 5 "Generated_Source\\PSoC4/ADC_SAR_Seq_1.h"
 291              		.file 6 "Generated_Source\\PSoC4/CyLib.h"
 292              		.file 7 "Generated_Source\\PSoC4/Switch1.h"
 293              		.file 8 "Generated_Source\\PSoC4/Speaker.h"
 294              		.file 9 "Generated_Source\\PSoC4/Red1.h"
 295              		.file 10 "Generated_Source\\PSoC4/Blue1.h"
 296              		.file 11 "Generated_Source\\PSoC4/Green1.h"
 297              		.file 12 "Generated_Source\\PSoC4/Red2.h"
 298              		.file 13 "Generated_Source\\PSoC4/Blue2.h"
 299              		.file 14 "Generated_Source\\PSoC4/Green2.h"
 300              		.file 15 "Generated_Source\\PSoC4/cytypes.h"
ARM GAS  C:\Users\harri\AppData\Local\Temp\ccTV1tqz.s 			page 8

